(lp1
(lp2
I11
aI4
aI0
aI6
aa(lp3
I12
aI6
aI0
aI7
aa(lp4
I5
aI2
aI0
aI2
aa(lp5
I15
aI5
aI0
aI10
aa(lp6
I33
aI14
aI0
aI18
aa(lp7
I4
aI1
aI0
aI2
aa(lp8
I29
aI14
aI0
aI14
aa(lp9
I44
aI19
aI0
aI26
aa(lp10
I20
aI5
aI0
aI12
aa(lp11
I23
aI13
aI0
aI10
aa(lp12
I71
aI25
aI0
aI46
aa(lp13
I9
aI2
aI0
aI6
aa(lp14
I11
aI1
aI0
aI8
aa(lp15
I13
aI4
aI0
aI8
aa(lp16
I33
aI12
aI0
aI18
aa(lp17
I5
aI2
aI0
aI2
aa(lp18
I5
aI2
aI0
aI3
aa(lp19
I6
aI3
aI0
aI2
aa(lp20
I76
aI26
aI0
aI52
aa(lp21
I13
aI4
aI0
aI8
aa(lp22
I13
aI4
aI0
aI8
aa(lp23
I6
aI3
aI0
aI2
aa(lp24
I5
aI2
aI0
aI2
aa(lp25
I31
aI12
aI0
aI18
aa(lp26
I19
aI10
aI0
aI10
aa(lp27
I21
aI11
aI0
aI12
aa(lp28
I133
aI50
aI0
aI80
aa(lp29
I10
aI6
aI0
aI4
aa(lp30
I8
aI3
aI0
aI4
aa(lp31
I41
aI9
aI0
aI28
aa(lp32
I5
aI2
aI0
aI2
aa(lp33
I13
aI4
aI0
aI8
aa(lp34
I48
aI12
aI0
aI34
aa(lp35
I15
aI6
aI0
aI10
aa(lp36
I16
aI6
aI0
aI10
aa(lp37
I15
aI6
aI0
aI10
aa(lp38
I9
aI4
aI0
aI4
aa(lp39
I13
aI4
aI0
aI8
aa(lp40
I13
aI1
aI0
aI4
aa(lp41
I24
aI11
aI0
aI12
aa(lp42
I9
aI2
aI0
aI6
aa(lp43
I19
aI6
aI0
aI12
aa(lp44
I14
aI6
aI0
aI8
aa(lp45
I19
aI4
aI0
aI12
aa(lp46
I11
aI6
aI0
aI4
aa(lp47
I47
aI19
aI0
aI28
aa(lp48
I10
aI6
aI0
aI4
aa(lp49
I36
aI12
aI0
aI12
aa(lp50
I21
aI10
aI0
aI12
aa(lp51
I8
aI3
aI0
aI4
aa(lp52
I3
aI2
aI0
aI0
aa(lp53
I27
aI10
aI0
aI18
aa(lp54
I24
aI6
aI0
aI18
aa(lp55
I22
aI12
aI0
aI10
aa(lp56
I27
aI4
aI0
aI18
aa(lp57
I121
aI54
aI0
aI66
aa(lp58
I7
aI3
aI0
aI2
aa(lp59
I4
aI1
aI0
aI2
aa(lp60
I12
aI7
aI0
aI4
aa(lp61
I16
aI8
aI0
aI8
aa(lp62
I5
aI2
aI0
aI2
aa(lp63
I66
aI21
aI0
aI44
aa(lp64
I15
aI6
aI0
aI8
aa(lp65
I12
aI5
aI0
aI6
aa(lp66
I37
aI12
aI0
aI14
aa(lp67
I14
aI5
aI0
aI7
aa(lp68
I11
aI5
aI0
aI6
aa(lp69
I28
aI1
aI0
aI14
aa(lp70
I4
aI2
aI0
aI2
aa(lp71
I18
aI8
aI0
aI10
aa(lp72
I14
aI6
aI0
aI8
aa(lp73
I20
aI12
aI0
aI8
aa(lp74
I21
aI6
aI0
aI8
aa(lp75
I9
aI3
aI0
aI6
aa(lp76
I5
aI2
aI0
aI3
aa(lp77
I15
aI5
aI0
aI10
aa(lp78
I5
aI2
aI0
aI2
aa(lp79
I5
aI2
aI0
aI2
aa.