(lp1
(lp2
I2
aI1
aI0
aI0
aa(lp3
I4
aI3
aI0
aI0
aa(lp4
I3
aI2
aI0
aI1
aa(lp5
I6
aI4
aI0
aI0
aa(lp6
I3
aI2
aI0
aI0
aa(lp7
I3
aI2
aI0
aI0
aa(lp8
I7
aI3
aI0
aI0
aa(lp9
I2
aI1
aI0
aI0
aa(lp10
I1
aI0
aI0
aI0
aa(lp11
I5
aI3
aI0
aI0
aa(lp12
I4
aI2
aI0
aI0
aa(lp13
I3
aI2
aI0
aI0
aa(lp14
I2
aI0
aI0
aI0
aa(lp15
I0
aI0
aI0
aI0
aa(lp16
I4
aI2
aI0
aI0
aa(lp17
I2
aI0
aI0
aI0
aa(lp18
I2
aI1
aI0
aI0
aa(lp19
I4
aI3
aI0
aI1
aa(lp20
I3
aI2
aI0
aI1
aa(lp21
I3
aI2
aI0
aI0
aa(lp22
I1
aI0
aI0
aI0
aa(lp23
I2
aI1
aI0
aI0
aa(lp24
I3
aI2
aI0
aI0
aa(lp25
I4
aI2
aI0
aI0
aa(lp26
I4
aI3
aI0
aI0
aa(lp27
I5
aI3
aI0
aI0
aa(lp28
I4
aI1
aI0
aI0
aa(lp29
I4
aI2
aI0
aI0
aa(lp30
I4
aI3
aI0
aI0
aa(lp31
I4
aI2
aI0
aI0
aa(lp32
I0
aI0
aI0
aI0
aa(lp33
I2
aI1
aI0
aI0
aa(lp34
I4
aI2
aI0
aI0
aa(lp35
I3
aI1
aI0
aI0
aa(lp36
I1
aI0
aI0
aI0
aa(lp37
I3
aI2
aI0
aI0
aa(lp38
I2
aI1
aI0
aI0
aa(lp39
I2
aI1
aI0
aI0
aa(lp40
I3
aI2
aI0
aI0
aa(lp41
I2
aI1
aI0
aI0
aa(lp42
I5
aI3
aI0
aI0
aa(lp43
I3
aI2
aI0
aI0
aa(lp44
I2
aI1
aI0
aI0
aa(lp45
I2
aI1
aI0
aI0
aa(lp46
I3
aI2
aI0
aI0
aa(lp47
I4
aI3
aI0
aI0
aa(lp48
I3
aI2
aI0
aI0
aa(lp49
I4
aI2
aI0
aI0
aa(lp50
I3
aI2
aI0
aI0
aa(lp51
I4
aI2
aI0
aI0
aa(lp52
I3
aI2
aI0
aI0
aa(lp53
I4
aI3
aI0
aI0
aa(lp54
I6
aI4
aI0
aI0
aa(lp55
I3
aI1
aI0
aI0
aa(lp56
I4
aI3
aI0
aI0
aa(lp57
I2
aI1
aI0
aI0
aa(lp58
I4
aI2
aI0
aI0
aa(lp59
I2
aI1
aI0
aI0
aa(lp60
I4
aI3
aI0
aI0
aa(lp61
I3
aI2
aI0
aI0
aa(lp62
I2
aI1
aI0
aI0
aa(lp63
I5
aI3
aI0
aI0
aa(lp64
I5
aI3
aI0
aI0
aa(lp65
I4
aI2
aI0
aI0
aa(lp66
I3
aI2
aI0
aI0
aa(lp67
I3
aI2
aI0
aI0
aa(lp68
I2
aI1
aI0
aI1
aa(lp69
I1
aI0
aI0
aI0
aa(lp70
I2
aI1
aI0
aI0
aa(lp71
I2
aI1
aI0
aI0
aa(lp72
I3
aI2
aI0
aI0
aa(lp73
I5
aI3
aI0
aI0
aa(lp74
I3
aI2
aI0
aI1
aa(lp75
I8
aI6
aI0
aI0
aa(lp76
I2
aI1
aI0
aI0
aa(lp77
I3
aI1
aI0
aI0
aa(lp78
I7
aI5
aI0
aI0
aa(lp79
I3
aI2
aI0
aI0
aa(lp80
I3
aI2
aI0
aI0
aa(lp81
I2
aI1
aI0
aI0
aa(lp82
I3
aI2
aI0
aI0
aa(lp83
I3
aI2
aI0
aI0
aa(lp84
I6
aI3
aI0
aI0
aa(lp85
I5
aI3
aI0
aI0
aa(lp86
I3
aI2
aI0
aI0
aa(lp87
I4
aI3
aI0
aI0
aa(lp88
I3
aI2
aI0
aI0
aa(lp89
I2
aI1
aI0
aI0
aa(lp90
I3
aI2
aI0
aI0
aa(lp91
I2
aI0
aI0
aI0
aa(lp92
I3
aI1
aI0
aI0
aa(lp93
I2
aI1
aI0
aI0
aa(lp94
I2
aI1
aI0
aI0
aa(lp95
I1
aI0
aI0
aI0
aa(lp96
I3
aI2
aI0
aI0
aa(lp97
I3
aI2
aI0
aI0
aa(lp98
I3
aI2
aI0
aI0
aa(lp99
I2
aI1
aI0
aI0
aa(lp100
I1
aI0
aI0
aI0
aa(lp101
I5
aI3
aI0
aI0
aa(lp102
I2
aI1
aI0
aI0
aa(lp103
I3
aI2
aI0
aI0
aa(lp104
I4
aI2
aI0
aI0
aa(lp105
I2
aI1
aI0
aI0
aa(lp106
I6
aI4
aI0
aI0
aa(lp107
I7
aI5
aI0
aI0
aa(lp108
I3
aI2
aI0
aI0
aa(lp109
I4
aI2
aI0
aI0
aa(lp110
I2
aI1
aI0
aI0
aa(lp111
I3
aI2
aI0
aI0
aa(lp112
I2
aI1
aI0
aI0
aa(lp113
I3
aI2
aI0
aI0
aa(lp114
I5
aI4
aI0
aI0
aa(lp115
I3
aI2
aI0
aI0
aa(lp116
I3
aI2
aI0
aI0
aa(lp117
I1
aI0
aI0
aI0
aa(lp118
I1
aI0
aI0
aI0
aa(lp119
I2
aI1
aI0
aI0
aa(lp120
I3
aI2
aI0
aI0
aa(lp121
I3
aI2
aI0
aI0
aa(lp122
I3
aI2
aI0
aI0
aa(lp123
I4
aI3
aI0
aI0
aa(lp124
I1
aI0
aI0
aI0
aa(lp125
I8
aI6
aI0
aI0
aa(lp126
I6
aI4
aI0
aI0
aa(lp127
I4
aI3
aI0
aI0
aa(lp128
I3
aI2
aI0
aI0
aa(lp129
I2
aI1
aI0
aI0
aa(lp130
I0
aI0
aI0
aI0
aa(lp131
I3
aI1
aI0
aI0
aa(lp132
I4
aI3
aI0
aI0
aa(lp133
I2
aI1
aI0
aI0
aa(lp134
I4
aI2
aI0
aI0
aa(lp135
I2
aI1
aI0
aI0
aa(lp136
I2
aI1
aI0
aI0
aa(lp137
I3
aI1
aI0
aI0
aa(lp138
I6
aI4
aI0
aI0
aa(lp139
I1
aI0
aI0
aI0
aa(lp140
I4
aI2
aI0
aI0
aa(lp141
I1
aI0
aI0
aI0
aa(lp142
I2
aI1
aI0
aI0
aa(lp143
I2
aI1
aI0
aI0
aa(lp144
I3
aI2
aI0
aI0
aa(lp145
I2
aI1
aI0
aI0
aa(lp146
I1
aI0
aI0
aI0
aa(lp147
I4
aI2
aI0
aI0
aa(lp148
I2
aI1
aI0
aI0
aa(lp149
I2
aI1
aI0
aI0
aa(lp150
I2
aI1
aI0
aI0
aa(lp151
I6
aI4
aI0
aI0
aa(lp152
I3
aI2
aI0
aI0
aa(lp153
I2
aI1
aI0
aI0
aa(lp154
I4
aI2
aI0
aI0
aa(lp155
I5
aI3
aI0
aI0
aa(lp156
I6
aI4
aI0
aI0
aa(lp157
I2
aI1
aI0
aI0
aa(lp158
I2
aI1
aI0
aI0
aa(lp159
I4
aI2
aI0
aI0
aa(lp160
I2
aI1
aI0
aI0
aa(lp161
I2
aI1
aI0
aI0
aa(lp162
I3
aI2
aI0
aI0
aa(lp163
I1
aI0
aI0
aI0
aa(lp164
I2
aI1
aI0
aI0
aa(lp165
I2
aI1
aI0
aI0
aa(lp166
I5
aI3
aI0
aI0
aa(lp167
I12
aI8
aI0
aI0
aa(lp168
I3
aI2
aI0
aI0
aa(lp169
I2
aI1
aI0
aI0
aa(lp170
I2
aI1
aI0
aI0
aa(lp171
I0
aI0
aI0
aI0
aa(lp172
I3
aI2
aI0
aI0
aa(lp173
I2
aI1
aI0
aI0
aa(lp174
I1
aI0
aI0
aI0
aa(lp175
I1
aI0
aI0
aI0
aa(lp176
I3
aI2
aI0
aI0
aa(lp177
I8
aI6
aI0
aI0
aa(lp178
I7
aI4
aI0
aI0
aa(lp179
I3
aI2
aI0
aI0
aa(lp180
I3
aI2
aI0
aI0
aa(lp181
I2
aI1
aI0
aI0
aa(lp182
I3
aI1
aI0
aI0
aa(lp183
I2
aI1
aI0
aI0
aa(lp184
I4
aI3
aI0
aI0
aa(lp185
I1
aI0
aI0
aI0
aa(lp186
I3
aI2
aI0
aI0
aa(lp187
I3
aI2
aI0
aI0
aa(lp188
I2
aI1
aI0
aI0
aa(lp189
I3
aI2
aI0
aI0
aa(lp190
I3
aI2
aI0
aI0
aa(lp191
I3
aI2
aI0
aI0
aa(lp192
I1
aI0
aI0
aI0
aa(lp193
I4
aI3
aI0
aI0
aa(lp194
I2
aI1
aI0
aI0
aa(lp195
I2
aI0
aI0
aI0
aa(lp196
I1
aI0
aI0
aI0
aa(lp197
I1
aI0
aI0
aI0
aa(lp198
I1
aI0
aI0
aI0
aa(lp199
I1
aI0
aI0
aI0
aa(lp200
I2
aI1
aI0
aI0
aa(lp201
I9
aI5
aI0
aI0
aa(lp202
I1
aI0
aI0
aI0
aa(lp203
I5
aI3
aI0
aI0
aa(lp204
I8
aI6
aI0
aI0
aa(lp205
I6
aI4
aI0
aI0
aa(lp206
I3
aI2
aI0
aI0
aa(lp207
I3
aI2
aI0
aI0
aa(lp208
I5
aI3
aI0
aI0
aa(lp209
I1
aI0
aI0
aI0
aa(lp210
I2
aI1
aI0
aI0
aa(lp211
I2
aI1
aI0
aI0
aa(lp212
I2
aI1
aI0
aI0
aa(lp213
I5
aI3
aI0
aI0
aa(lp214
I0
aI0
aI0
aI0
aa(lp215
I2
aI1
aI0
aI0
aa(lp216
I2
aI1
aI0
aI0
aa(lp217
I2
aI1
aI0
aI0
aa(lp218
I4
aI3
aI0
aI0
aa(lp219
I3
aI2
aI0
aI0
aa(lp220
I3
aI2
aI0
aI0
aa(lp221
I3
aI1
aI0
aI0
aa(lp222
I2
aI1
aI0
aI0
aa(lp223
I2
aI1
aI0
aI0
aa(lp224
I5
aI3
aI0
aI0
aa(lp225
I2
aI1
aI0
aI0
aa(lp226
I4
aI2
aI0
aI0
aa(lp227
I4
aI2
aI0
aI0
aa(lp228
I2
aI1
aI0
aI0
aa(lp229
I1
aI0
aI0
aI0
aa(lp230
I4
aI3
aI0
aI1
aa(lp231
I3
aI1
aI0
aI0
aa(lp232
I6
aI4
aI0
aI0
aa(lp233
I1
aI0
aI0
aI0
aa(lp234
I3
aI2
aI0
aI0
aa(lp235
I3
aI2
aI0
aI0
aa(lp236
I4
aI2
aI0
aI0
aa(lp237
I2
aI1
aI0
aI0
aa(lp238
I3
aI2
aI0
aI0
aa(lp239
I3
aI2
aI0
aI0
aa(lp240
I3
aI2
aI0
aI0
aa(lp241
I2
aI1
aI0
aI0
aa(lp242
I2
aI1
aI0
aI0
aa(lp243
I3
aI2
aI0
aI0
aa(lp244
I1
aI0
aI0
aI0
aa(lp245
I3
aI1
aI0
aI0
aa(lp246
I6
aI3
aI0
aI0
aa(lp247
I3
aI2
aI0
aI0
aa(lp248
I5
aI2
aI0
aI0
aa(lp249
I4
aI2
aI0
aI0
aa(lp250
I3
aI2
aI0
aI0
aa(lp251
I4
aI3
aI0
aI0
aa(lp252
I2
aI1
aI0
aI0
aa(lp253
I2
aI1
aI0
aI0
aa(lp254
I1
aI0
aI0
aI0
aa(lp255
I3
aI2
aI0
aI0
aa(lp256
I3
aI2
aI0
aI0
aa(lp257
I8
aI6
aI0
aI0
aa(lp258
I3
aI2
aI0
aI0
aa(lp259
I1
aI0
aI0
aI0
aa(lp260
I2
aI1
aI0
aI0
aa(lp261
I5
aI3
aI0
aI0
aa(lp262
I2
aI1
aI0
aI0
aa(lp263
I4
aI1
aI0
aI0
aa(lp264
I5
aI3
aI0
aI0
aa(lp265
I0
aI0
aI0
aI0
aa(lp266
I8
aI6
aI0
aI0
aa(lp267
I2
aI1
aI0
aI0
aa(lp268
I5
aI3
aI0
aI0
aa(lp269
I4
aI2
aI0
aI0
aa(lp270
I4
aI2
aI0
aI0
aa(lp271
I3
aI2
aI0
aI0
aa(lp272
I7
aI5
aI0
aI0
aa(lp273
I2
aI1
aI0
aI0
aa(lp274
I3
aI2
aI0
aI0
aa(lp275
I3
aI1
aI0
aI0
aa(lp276
I3
aI2
aI0
aI0
aa(lp277
I7
aI5
aI0
aI0
aa(lp278
I4
aI2
aI0
aI0
aa(lp279
I3
aI2
aI0
aI0
aa(lp280
I3
aI2
aI0
aI0
aa(lp281
I4
aI3
aI0
aI0
aa(lp282
I2
aI1
aI0
aI0
aa(lp283
I3
aI2
aI0
aI0
aa(lp284
I2
aI1
aI0
aI0
aa(lp285
I8
aI6
aI0
aI0
aa(lp286
I3
aI2
aI0
aI0
aa(lp287
I2
aI1
aI0
aI0
aa(lp288
I3
aI2
aI0
aI0
aa(lp289
I0
aI0
aI0
aI0
aa(lp290
I4
aI2
aI0
aI0
aa(lp291
I2
aI1
aI0
aI0
aa(lp292
I1
aI0
aI0
aI0
aa(lp293
I10
aI10
aI0
aI0
aa(lp294
I4
aI3
aI0
aI0
aa(lp295
I3
aI2
aI0
aI0
aa(lp296
I5
aI3
aI0
aI0
aa(lp297
I5
aI3
aI0
aI0
aa(lp298
I3
aI2
aI0
aI0
aa(lp299
I3
aI2
aI0
aI0
aa(lp300
I1
aI0
aI0
aI0
aa(lp301
I3
aI2
aI0
aI0
aa(lp302
I3
aI2
aI0
aI0
aa(lp303
I1
aI0
aI0
aI0
aa(lp304
I14
aI10
aI0
aI0
aa(lp305
I4
aI2
aI0
aI0
aa(lp306
I0
aI0
aI0
aI0
aa(lp307
I2
aI1
aI0
aI0
aa(lp308
I6
aI3
aI0
aI0
aa(lp309
I3
aI2
aI0
aI0
aa(lp310
I3
aI2
aI0
aI0
aa(lp311
I1
aI0
aI0
aI0
aa(lp312
I2
aI1
aI0
aI0
aa(lp313
I5
aI3
aI0
aI0
aa(lp314
I1
aI0
aI0
aI0
aa(lp315
I2
aI1
aI0
aI0
aa(lp316
I4
aI2
aI0
aI0
aa(lp317
I6
aI4
aI0
aI0
aa(lp318
I4
aI2
aI0
aI0
aa(lp319
I2
aI1
aI0
aI0
aa(lp320
I6
aI5
aI0
aI0
aa(lp321
I4
aI3
aI0
aI0
aa(lp322
I2
aI1
aI0
aI0
aa(lp323
I4
aI2
aI0
aI0
aa(lp324
I5
aI3
aI0
aI0
aa(lp325
I2
aI1
aI0
aI0
aa(lp326
I2
aI1
aI0
aI0
aa(lp327
I3
aI2
aI0
aI0
aa(lp328
I3
aI2
aI0
aI0
aa(lp329
I4
aI2
aI0
aI0
aa(lp330
I1
aI0
aI0
aI0
aa(lp331
I2
aI1
aI0
aI0
aa(lp332
I5
aI3
aI0
aI0
aa(lp333
I6
aI4
aI0
aI0
aa(lp334
I3
aI2
aI0
aI0
aa(lp335
I3
aI2
aI0
aI0
aa(lp336
I4
aI2
aI0
aI0
aa(lp337
I2
aI1
aI0
aI0
aa(lp338
I1
aI0
aI0
aI0
aa(lp339
I2
aI1
aI0
aI0
aa(lp340
I2
aI1
aI0
aI0
aa(lp341
I5
aI3
aI0
aI0
aa(lp342
I4
aI2
aI0
aI0
aa(lp343
I1
aI0
aI0
aI0
aa(lp344
I4
aI2
aI0
aI0
aa(lp345
I3
aI2
aI0
aI0
aa(lp346
I3
aI2
aI0
aI0
aa(lp347
I4
aI3
aI0
aI0
aa(lp348
I2
aI1
aI0
aI0
aa(lp349
I2
aI1
aI0
aI0
aa(lp350
I4
aI2
aI0
aI0
aa(lp351
I5
aI3
aI0
aI0
aa(lp352
I11
aI10
aI0
aI0
aa(lp353
I1
aI0
aI0
aI0
aa(lp354
I1
aI0
aI0
aI0
aa(lp355
I2
aI0
aI0
aI0
aa(lp356
I4
aI3
aI0
aI0
aa(lp357
I4
aI3
aI0
aI0
aa(lp358
I3
aI2
aI0
aI0
aa(lp359
I2
aI1
aI0
aI0
aa(lp360
I2
aI1
aI0
aI0
aa(lp361
I2
aI1
aI0
aI0
aa(lp362
I3
aI2
aI0
aI0
aa(lp363
I2
aI1
aI0
aI0
aa(lp364
I6
aI4
aI0
aI0
aa(lp365
I1
aI0
aI0
aI0
aa(lp366
I7
aI4
aI0
aI0
aa(lp367
I2
aI1
aI0
aI0
aa(lp368
I4
aI2
aI0
aI0
aa(lp369
I3
aI2
aI0
aI0
aa(lp370
I3
aI2
aI0
aI0
aa(lp371
I0
aI0
aI0
aI0
aa(lp372
I2
aI1
aI0
aI0
aa(lp373
I1
aI0
aI0
aI0
aa(lp374
I3
aI2
aI0
aI0
aa(lp375
I2
aI1
aI0
aI0
aa(lp376
I3
aI2
aI0
aI0
aa(lp377
I6
aI5
aI0
aI0
aa(lp378
I3
aI1
aI0
aI0
aa(lp379
I2
aI1
aI0
aI0
aa(lp380
I1
aI0
aI0
aI0
aa(lp381
I2
aI1
aI0
aI0
aa(lp382
I3
aI2
aI0
aI0
aa(lp383
I5
aI3
aI0
aI0
aa(lp384
I5
aI2
aI0
aI0
aa(lp385
I7
aI4
aI0
aI0
aa(lp386
I8
aI4
aI0
aI0
aa(lp387
I3
aI2
aI0
aI0
aa(lp388
I2
aI1
aI0
aI0
aa(lp389
I4
aI2
aI0
aI0
aa(lp390
I5
aI3
aI0
aI0
aa(lp391
I3
aI2
aI0
aI0
aa(lp392
I2
aI1
aI0
aI0
aa(lp393
I6
aI4
aI0
aI0
aa(lp394
I2
aI1
aI0
aI0
aa(lp395
I3
aI2
aI0
aI0
aa(lp396
I2
aI1
aI0
aI0
aa(lp397
I2
aI1
aI0
aI0
aa(lp398
I2
aI1
aI0
aI0
aa(lp399
I3
aI2
aI0
aI0
aa(lp400
I4
aI2
aI0
aI0
aa(lp401
I3
aI1
aI0
aI0
aa(lp402
I1
aI0
aI0
aI0
aa(lp403
I3
aI2
aI0
aI0
aa(lp404
I3
aI2
aI0
aI0
aa(lp405
I2
aI1
aI0
aI0
aa(lp406
I2
aI1
aI0
aI0
aa(lp407
I2
aI1
aI0
aI0
aa(lp408
I3
aI2
aI0
aI1
aa(lp409
I3
aI2
aI0
aI0
aa(lp410
I2
aI1
aI0
aI0
aa(lp411
I2
aI1
aI0
aI0
aa(lp412
I3
aI2
aI0
aI0
aa(lp413
I3
aI2
aI0
aI0
aa(lp414
I3
aI2
aI0
aI0
aa(lp415
I1
aI0
aI0
aI0
aa(lp416
I1
aI0
aI0
aI0
aa(lp417
I2
aI1
aI0
aI0
aa(lp418
I2
aI0
aI0
aI0
aa(lp419
I4
aI2
aI0
aI0
aa(lp420
I2
aI1
aI0
aI0
aa(lp421
I2
aI1
aI0
aI0
aa(lp422
I4
aI2
aI0
aI0
aa(lp423
I2
aI1
aI0
aI0
aa(lp424
I3
aI2
aI0
aI0
aa(lp425
I1
aI0
aI0
aI0
aa(lp426
I1
aI0
aI0
aI0
aa(lp427
I3
aI2
aI0
aI0
aa(lp428
I2
aI1
aI0
aI0
aa(lp429
I0
aI0
aI0
aI0
aa(lp430
I2
aI1
aI0
aI0
aa(lp431
I2
aI1
aI0
aI0
aa(lp432
I2
aI1
aI0
aI0
aa(lp433
I3
aI2
aI0
aI0
aa(lp434
I4
aI3
aI0
aI0
aa(lp435
I3
aI2
aI0
aI0
aa(lp436
I7
aI5
aI0
aI0
aa(lp437
I3
aI2
aI0
aI0
aa(lp438
I2
aI1
aI0
aI0
aa(lp439
I2
aI1
aI0
aI0
aa(lp440
I3
aI2
aI0
aI0
aa(lp441
I3
aI2
aI0
aI0
aa(lp442
I3
aI2
aI0
aI0
aa(lp443
I2
aI1
aI0
aI0
aa(lp444
I3
aI2
aI0
aI0
aa(lp445
I3
aI2
aI0
aI0
aa(lp446
I10
aI7
aI0
aI0
aa(lp447
I3
aI2
aI0
aI0
aa(lp448
I3
aI2
aI0
aI0
aa(lp449
I3
aI2
aI0
aI0
aa(lp450
I2
aI1
aI0
aI0
aa(lp451
I5
aI2
aI0
aI0
aa(lp452
I3
aI2
aI0
aI0
aa(lp453
I3
aI2
aI0
aI0
aa(lp454
I1
aI0
aI0
aI0
aa(lp455
I4
aI3
aI0
aI0
aa(lp456
I3
aI2
aI0
aI0
aa(lp457
I2
aI1
aI0
aI0
aa(lp458
I3
aI2
aI0
aI0
aa(lp459
I4
aI2
aI0
aI0
aa(lp460
I3
aI2
aI0
aI0
aa(lp461
I3
aI2
aI0
aI0
aa(lp462
I3
aI2
aI0
aI0
aa(lp463
I2
aI1
aI0
aI0
aa(lp464
I1
aI0
aI0
aI0
aa(lp465
I3
aI2
aI0
aI0
aa(lp466
I2
aI1
aI0
aI0
aa(lp467
I6
aI4
aI0
aI0
aa(lp468
I4
aI1
aI0
aI0
aa(lp469
I6
aI4
aI0
aI0
aa(lp470
I3
aI2
aI0
aI0
aa(lp471
I3
aI2
aI0
aI0
aa(lp472
I3
aI2
aI0
aI0
aa(lp473
I3
aI2
aI0
aI0
aa(lp474
I2
aI1
aI0
aI0
aa(lp475
I3
aI2
aI0
aI0
aa(lp476
I2
aI1
aI0
aI0
aa(lp477
I3
aI1
aI0
aI0
aa(lp478
I2
aI1
aI0
aI0
aa(lp479
I1
aI0
aI0
aI0
aa(lp480
I2
aI1
aI0
aI0
aa(lp481
I4
aI2
aI0
aI1
aa(lp482
I3
aI2
aI0
aI0
aa(lp483
I3
aI2
aI0
aI0
aa(lp484
I3
aI2
aI0
aI0
aa(lp485
I2
aI1
aI0
aI0
aa(lp486
I6
aI3
aI0
aI0
aa(lp487
I1
aI0
aI0
aI0
aa(lp488
I2
aI1
aI0
aI0
aa(lp489
I2
aI1
aI0
aI0
aa(lp490
I0
aI0
aI0
aI0
aa(lp491
I2
aI1
aI0
aI0
aa(lp492
I6
aI4
aI0
aI0
aa(lp493
I4
aI2
aI0
aI0
aa(lp494
I3
aI1
aI0
aI0
aa(lp495
I8
aI6
aI0
aI0
aa(lp496
I2
aI1
aI0
aI0
aa(lp497
I2
aI1
aI0
aI0
aa(lp498
I4
aI2
aI0
aI0
aa(lp499
I4
aI2
aI0
aI0
aa(lp500
I5
aI3
aI0
aI0
aa(lp501
I3
aI2
aI0
aI0
aa(lp502
I3
aI2
aI0
aI0
aa(lp503
I3
aI2
aI0
aI0
aa(lp504
I3
aI2
aI0
aI0
aa(lp505
I4
aI3
aI0
aI0
aa(lp506
I1
aI0
aI0
aI0
aa(lp507
I7
aI3
aI0
aI0
aa(lp508
I6
aI4
aI0
aI0
aa(lp509
I3
aI2
aI0
aI0
aa(lp510
I4
aI2
aI0
aI0
aa(lp511
I3
aI2
aI0
aI0
aa(lp512
I3
aI2
aI0
aI0
aa(lp513
I2
aI1
aI0
aI0
aa(lp514
I3
aI2
aI0
aI0
aa(lp515
I2
aI1
aI0
aI0
aa(lp516
I4
aI3
aI0
aI0
aa(lp517
I2
aI1
aI0
aI0
aa(lp518
I2
aI1
aI0
aI0
aa(lp519
I5
aI3
aI0
aI0
aa(lp520
I3
aI2
aI0
aI0
aa(lp521
I4
aI2
aI0
aI0
aa(lp522
I5
aI1
aI0
aI0
aa(lp523
I1
aI0
aI0
aI0
aa(lp524
I2
aI1
aI0
aI0
aa(lp525
I4
aI3
aI0
aI0
aa(lp526
I4
aI2
aI0
aI0
aa(lp527
I2
aI1
aI0
aI0
aa(lp528
I2
aI1
aI0
aI0
aa(lp529
I3
aI2
aI0
aI0
aa(lp530
I4
aI2
aI0
aI0
aa(lp531
I7
aI3
aI0
aI0
aa(lp532
I4
aI2
aI0
aI0
aa(lp533
I3
aI2
aI0
aI0
aa(lp534
I3
aI2
aI0
aI0
aa(lp535
I3
aI2
aI0
aI0
aa(lp536
I4
aI2
aI0
aI0
aa(lp537
I1
aI0
aI0
aI0
aa(lp538
I3
aI1
aI0
aI0
aa(lp539
I3
aI2
aI0
aI0
aa(lp540
I4
aI3
aI0
aI0
aa(lp541
I3
aI2
aI0
aI0
aa(lp542
I2
aI1
aI0
aI0
aa(lp543
I3
aI2
aI0
aI0
aa(lp544
I3
aI1
aI0
aI0
aa(lp545
I7
aI4
aI0
aI0
aa(lp546
I2
aI1
aI0
aI0
aa(lp547
I1
aI0
aI0
aI0
aa(lp548
I3
aI2
aI0
aI0
aa(lp549
I3
aI2
aI0
aI0
aa(lp550
I2
aI1
aI0
aI0
aa(lp551
I3
aI2
aI0
aI0
aa(lp552
I2
aI1
aI0
aI0
aa(lp553
I6
aI4
aI0
aI0
aa(lp554
I1
aI0
aI0
aI0
aa(lp555
I1
aI0
aI0
aI0
aa(lp556
I3
aI2
aI0
aI0
aa(lp557
I6
aI4
aI0
aI0
aa(lp558
I4
aI3
aI0
aI1
aa(lp559
I4
aI3
aI0
aI0
aa(lp560
I5
aI3
aI0
aI0
aa(lp561
I3
aI2
aI0
aI0
aa(lp562
I5
aI3
aI0
aI0
aa(lp563
I4
aI2
aI0
aI0
aa(lp564
I3
aI2
aI0
aI0
aa(lp565
I1
aI0
aI0
aI0
aa(lp566
I3
aI1
aI0
aI0
aa(lp567
I2
aI1
aI0
aI0
aa(lp568
I3
aI0
aI0
aI0
aa(lp569
I4
aI3
aI0
aI0
aa(lp570
I3
aI2
aI0
aI0
aa(lp571
I2
aI1
aI0
aI0
aa(lp572
I2
aI1
aI0
aI0
aa(lp573
I2
aI1
aI0
aI0
aa(lp574
I2
aI1
aI0
aI0
aa(lp575
I2
aI1
aI0
aI0
aa(lp576
I2
aI1
aI0
aI0
aa(lp577
I2
aI1
aI0
aI0
aa(lp578
I3
aI2
aI0
aI0
aa(lp579
I3
aI2
aI0
aI0
aa(lp580
I3
aI2
aI0
aI0
aa(lp581
I5
aI4
aI0
aI0
aa(lp582
I2
aI1
aI0
aI0
aa(lp583
I2
aI1
aI0
aI0
aa(lp584
I3
aI2
aI0
aI0
aa(lp585
I4
aI3
aI0
aI0
aa(lp586
I1
aI0
aI0
aI0
aa(lp587
I4
aI2
aI0
aI0
aa(lp588
I2
aI1
aI0
aI0
aa(lp589
I3
aI2
aI0
aI0
aa(lp590
I6
aI4
aI0
aI0
aa(lp591
I1
aI0
aI0
aI0
aa(lp592
I1
aI0
aI0
aI0
aa(lp593
I2
aI1
aI0
aI0
aa(lp594
I6
aI4
aI0
aI0
aa(lp595
I3
aI2
aI0
aI0
aa(lp596
I3
aI2
aI0
aI0
aa(lp597
I3
aI2
aI0
aI0
aa(lp598
I0
aI0
aI0
aI0
aa(lp599
I2
aI1
aI0
aI0
aa(lp600
I2
aI1
aI0
aI0
aa(lp601
I3
aI2
aI0
aI0
aa(lp602
I5
aI3
aI0
aI1
aa(lp603
I2
aI1
aI0
aI0
aa(lp604
I4
aI2
aI0
aI0
aa(lp605
I2
aI1
aI0
aI0
aa(lp606
I4
aI3
aI0
aI0
aa(lp607
I4
aI3
aI0
aI0
aa(lp608
I4
aI3
aI0
aI0
aa(lp609
I2
aI1
aI0
aI0
aa(lp610
I2
aI1
aI0
aI0
aa(lp611
I4
aI2
aI0
aI0
aa(lp612
I3
aI2
aI0
aI0
aa(lp613
I1
aI0
aI0
aI0
aa(lp614
I3
aI2
aI0
aI0
aa(lp615
I3
aI2
aI0
aI0
aa(lp616
I3
aI2
aI0
aI0
aa(lp617
I2
aI0
aI0
aI0
aa(lp618
I4
aI3
aI0
aI0
aa(lp619
I2
aI1
aI0
aI0
aa(lp620
I3
aI2
aI0
aI0
aa(lp621
I3
aI2
aI0
aI0
aa(lp622
I4
aI2
aI0
aI0
aa(lp623
I2
aI1
aI0
aI0
aa(lp624
I1
aI0
aI0
aI0
aa(lp625
I4
aI2
aI0
aI0
aa(lp626
I2
aI1
aI0
aI0
aa(lp627
I3
aI2
aI0
aI0
aa(lp628
I2
aI1
aI0
aI0
aa(lp629
I2
aI1
aI0
aI0
aa(lp630
I2
aI1
aI0
aI0
aa(lp631
I2
aI1
aI0
aI0
aa(lp632
I2
aI1
aI0
aI0
aa(lp633
I6
aI4
aI0
aI0
aa(lp634
I2
aI1
aI0
aI0
aa(lp635
I3
aI2
aI0
aI0
aa(lp636
I2
aI1
aI0
aI0
aa(lp637
I5
aI3
aI0
aI0
aa(lp638
I2
aI1
aI0
aI0
aa(lp639
I6
aI3
aI0
aI0
aa(lp640
I5
aI3
aI0
aI0
aa(lp641
I6
aI5
aI0
aI0
aa(lp642
I3
aI2
aI0
aI0
aa(lp643
I3
aI2
aI0
aI0
aa(lp644
I0
aI0
aI0
aI0
aa(lp645
I4
aI2
aI0
aI0
aa(lp646
I9
aI6
aI0
aI0
aa(lp647
I1
aI0
aI0
aI0
aa(lp648
I3
aI2
aI0
aI0
aa(lp649
I3
aI2
aI0
aI0
aa(lp650
I3
aI2
aI0
aI0
aa(lp651
I2
aI1
aI0
aI0
aa(lp652
I2
aI1
aI0
aI0
aa(lp653
I3
aI2
aI0
aI0
aa(lp654
I2
aI1
aI0
aI0
aa(lp655
I1
aI0
aI0
aI0
aa(lp656
I6
aI4
aI0
aI0
aa(lp657
I2
aI1
aI0
aI0
aa(lp658
I2
aI1
aI0
aI0
aa(lp659
I3
aI0
aI0
aI0
aa(lp660
I2
aI1
aI0
aI0
aa(lp661
I3
aI2
aI0
aI0
aa(lp662
I0
aI0
aI0
aI0
aa(lp663
I3
aI2
aI0
aI0
aa(lp664
I3
aI2
aI0
aI0
aa(lp665
I3
aI2
aI0
aI0
aa(lp666
I3
aI2
aI0
aI0
aa(lp667
I3
aI2
aI0
aI0
aa(lp668
I2
aI1
aI0
aI0
aa(lp669
I2
aI1
aI0
aI0
aa(lp670
I5
aI4
aI0
aI0
aa(lp671
I1
aI0
aI0
aI0
aa(lp672
I3
aI2
aI0
aI0
aa(lp673
I4
aI2
aI0
aI0
aa(lp674
I3
aI2
aI0
aI0
aa(lp675
I2
aI1
aI0
aI0
aa(lp676
I3
aI2
aI0
aI0
aa(lp677
I5
aI3
aI0
aI0
aa(lp678
I4
aI3
aI0
aI0
aa.