(lp1
(lp2
I3
aI2
aI0
aI0
aa(lp3
I2
aI1
aI0
aI0
aa(lp4
I1
aI0
aI0
aI0
aa(lp5
I3
aI2
aI0
aI0
aa(lp6
I4
aI3
aI0
aI0
aa(lp7
I4
aI3
aI0
aI0
aa(lp8
I3
aI2
aI0
aI0
aa(lp9
I3
aI2
aI0
aI0
aa(lp10
I2
aI1
aI0
aI0
aa(lp11
I5
aI3
aI0
aI0
aa(lp12
I2
aI1
aI0
aI0
aa(lp13
I2
aI1
aI0
aI0
aa(lp14
I3
aI2
aI0
aI0
aa(lp15
I3
aI2
aI0
aI0
aa(lp16
I3
aI2
aI0
aI0
aa(lp17
I2
aI1
aI0
aI0
aa(lp18
I7
aI5
aI0
aI0
aa(lp19
I3
aI2
aI0
aI0
aa(lp20
I3
aI2
aI0
aI0
aa(lp21
I3
aI2
aI0
aI0
aa(lp22
I4
aI3
aI0
aI0
aa(lp23
I6
aI4
aI0
aI0
aa(lp24
I2
aI1
aI0
aI0
aa(lp25
I1
aI0
aI0
aI0
aa(lp26
I3
aI2
aI0
aI0
aa(lp27
I2
aI1
aI0
aI0
aa(lp28
I5
aI3
aI0
aI0
aa(lp29
I2
aI1
aI0
aI0
aa(lp30
I2
aI1
aI0
aI0
aa(lp31
I3
aI2
aI0
aI0
aa(lp32
I3
aI2
aI0
aI0
aa(lp33
I4
aI2
aI0
aI0
aa(lp34
I3
aI2
aI0
aI0
aa(lp35
I3
aI2
aI0
aI0
aa(lp36
I2
aI1
aI0
aI0
aa(lp37
I5
aI3
aI0
aI0
aa(lp38
I4
aI2
aI0
aI0
aa(lp39
I7
aI5
aI0
aI0
aa(lp40
I4
aI2
aI0
aI0
aa(lp41
I2
aI1
aI0
aI0
aa(lp42
I1
aI0
aI0
aI0
aa(lp43
I2
aI1
aI0
aI0
aa(lp44
I4
aI2
aI0
aI0
aa(lp45
I4
aI2
aI0
aI0
aa(lp46
I2
aI1
aI0
aI0
aa(lp47
I2
aI1
aI0
aI0
aa(lp48
I6
aI5
aI0
aI0
aa(lp49
I2
aI1
aI0
aI0
aa(lp50
I2
aI1
aI0
aI0
aa(lp51
I2
aI1
aI0
aI0
aa(lp52
I6
aI5
aI0
aI0
aa(lp53
I1
aI0
aI0
aI0
aa(lp54
I2
aI1
aI0
aI0
aa(lp55
I3
aI2
aI0
aI0
aa(lp56
I4
aI2
aI0
aI0
aa(lp57
I5
aI4
aI0
aI0
aa(lp58
I2
aI1
aI0
aI0
aa(lp59
I4
aI3
aI0
aI0
aa(lp60
I1
aI0
aI0
aI0
aa(lp61
I3
aI2
aI0
aI0
aa(lp62
I1
aI0
aI0
aI0
aa(lp63
I0
aI0
aI0
aI0
aa(lp64
I2
aI1
aI0
aI0
aa(lp65
I2
aI1
aI0
aI0
aa(lp66
I2
aI1
aI0
aI0
aa(lp67
I4
aI2
aI0
aI0
aa(lp68
I2
aI0
aI0
aI2
aa(lp69
I2
aI1
aI0
aI0
aa(lp70
I3
aI2
aI0
aI0
aa(lp71
I3
aI2
aI0
aI0
aa(lp72
I3
aI2
aI0
aI0
aa(lp73
I16
aI8
aI0
aI8
aa(lp74
I11
aI10
aI0
aI0
aa(lp75
I4
aI2
aI0
aI1
aa(lp76
I2
aI1
aI0
aI0
aa(lp77
I4
aI2
aI0
aI0
aa(lp78
I4
aI3
aI0
aI0
aa(lp79
I3
aI2
aI0
aI0
aa(lp80
I3
aI2
aI0
aI1
aa(lp81
I7
aI4
aI0
aI1
aa(lp82
I3
aI1
aI0
aI0
aa(lp83
I2
aI1
aI0
aI0
aa(lp84
I1
aI0
aI0
aI0
aa(lp85
I3
aI2
aI0
aI0
aa(lp86
I5
aI1
aI0
aI4
aa(lp87
I8
aI6
aI0
aI0
aa(lp88
I3
aI2
aI0
aI0
aa(lp89
I4
aI2
aI0
aI0
aa(lp90
I2
aI1
aI0
aI0
aa(lp91
I2
aI1
aI0
aI0
aa(lp92
I1
aI0
aI0
aI0
aa(lp93
I3
aI2
aI0
aI0
aa(lp94
I3
aI2
aI0
aI0
aa(lp95
I3
aI2
aI0
aI0
aa(lp96
I2
aI0
aI0
aI0
aa(lp97
I3
aI2
aI0
aI0
aa(lp98
I2
aI1
aI0
aI0
aa(lp99
I2
aI1
aI0
aI0
aa(lp100
I2
aI1
aI0
aI0
aa(lp101
I3
aI2
aI0
aI0
aa(lp102
I5
aI2
aI0
aI0
aa(lp103
I1
aI0
aI0
aI0
aa(lp104
I2
aI1
aI0
aI0
aa(lp105
I1
aI0
aI0
aI0
aa(lp106
I1
aI0
aI0
aI0
aa(lp107
I2
aI1
aI0
aI0
aa(lp108
I3
aI2
aI0
aI0
aa(lp109
I3
aI1
aI0
aI0
aa(lp110
I2
aI1
aI0
aI0
aa(lp111
I3
aI2
aI0
aI0
aa(lp112
I2
aI1
aI0
aI0
aa(lp113
I1
aI0
aI0
aI0
aa(lp114
I5
aI2
aI0
aI0
aa(lp115
I2
aI1
aI0
aI0
aa(lp116
I3
aI2
aI0
aI0
aa(lp117
I1
aI0
aI0
aI0
aa(lp118
I0
aI0
aI0
aI0
aa(lp119
I3
aI2
aI0
aI0
aa(lp120
I3
aI2
aI0
aI0
aa(lp121
I3
aI2
aI0
aI0
aa(lp122
I6
aI3
aI0
aI0
aa(lp123
I2
aI1
aI0
aI0
aa(lp124
I2
aI1
aI0
aI0
aa(lp125
I3
aI2
aI0
aI0
aa(lp126
I2
aI1
aI0
aI0
aa(lp127
I3
aI2
aI0
aI0
aa(lp128
I1
aI0
aI0
aI0
aa(lp129
I5
aI3
aI0
aI0
aa(lp130
I2
aI1
aI0
aI0
aa(lp131
I1
aI0
aI0
aI0
aa(lp132
I3
aI2
aI0
aI0
aa(lp133
I2
aI1
aI0
aI0
aa(lp134
I3
aI2
aI0
aI0
aa(lp135
I4
aI3
aI0
aI1
aa(lp136
I2
aI1
aI0
aI0
aa(lp137
I3
aI2
aI0
aI0
aa(lp138
I2
aI1
aI0
aI0
aa(lp139
I2
aI1
aI0
aI0
aa(lp140
I4
aI2
aI0
aI0
aa(lp141
I2
aI1
aI0
aI0
aa(lp142
I5
aI3
aI0
aI0
aa(lp143
I2
aI1
aI0
aI0
aa(lp144
I3
aI2
aI0
aI0
aa(lp145
I3
aI2
aI0
aI0
aa(lp146
I2
aI1
aI0
aI0
aa(lp147
I3
aI2
aI0
aI1
aa(lp148
I3
aI2
aI0
aI0
aa(lp149
I3
aI2
aI0
aI0
aa(lp150
I4
aI3
aI0
aI0
aa(lp151
I4
aI2
aI0
aI0
aa(lp152
I2
aI1
aI0
aI0
aa(lp153
I5
aI3
aI0
aI0
aa(lp154
I2
aI1
aI0
aI0
aa(lp155
I3
aI2
aI0
aI0
aa(lp156
I2
aI1
aI0
aI0
aa(lp157
I2
aI1
aI0
aI0
aa(lp158
I4
aI2
aI0
aI0
aa(lp159
I3
aI2
aI0
aI0
aa(lp160
I3
aI1
aI0
aI0
aa(lp161
I14
aI10
aI0
aI0
aa(lp162
I3
aI2
aI0
aI1
aa(lp163
I2
aI1
aI0
aI0
aa(lp164
I3
aI2
aI0
aI0
aa(lp165
I3
aI2
aI0
aI0
aa(lp166
I4
aI2
aI0
aI0
aa(lp167
I1
aI0
aI0
aI0
aa(lp168
I3
aI2
aI0
aI0
aa(lp169
I2
aI1
aI0
aI0
aa(lp170
I3
aI1
aI0
aI2
aa(lp171
I2
aI1
aI0
aI0
aa(lp172
I2
aI1
aI0
aI0
aa(lp173
I4
aI2
aI0
aI0
aa(lp174
I3
aI2
aI0
aI0
aa(lp175
I2
aI1
aI0
aI0
aa(lp176
I8
aI6
aI0
aI0
aa(lp177
I4
aI2
aI0
aI2
aa(lp178
I4
aI2
aI0
aI0
aa(lp179
I3
aI2
aI0
aI0
aa(lp180
I8
aI6
aI0
aI0
aa(lp181
I3
aI0
aI0
aI0
aa(lp182
I3
aI2
aI0
aI0
aa(lp183
I3
aI2
aI0
aI0
aa(lp184
I4
aI2
aI0
aI0
aa(lp185
I6
aI4
aI0
aI0
aa(lp186
I3
aI2
aI0
aI0
aa(lp187
I4
aI3
aI0
aI0
aa(lp188
I4
aI3
aI0
aI0
aa(lp189
I2
aI1
aI0
aI0
aa(lp190
I3
aI2
aI0
aI0
aa(lp191
I2
aI1
aI0
aI0
aa(lp192
I4
aI3
aI0
aI0
aa(lp193
I6
aI4
aI0
aI0
aa(lp194
I3
aI2
aI0
aI0
aa(lp195
I3
aI2
aI0
aI0
aa(lp196
I2
aI1
aI0
aI0
aa(lp197
I3
aI2
aI0
aI0
aa(lp198
I2
aI1
aI0
aI0
aa(lp199
I7
aI5
aI0
aI0
aa(lp200
I0
aI0
aI0
aI0
aa(lp201
I1
aI0
aI0
aI0
aa(lp202
I3
aI2
aI0
aI0
aa(lp203
I2
aI1
aI0
aI0
aa(lp204
I2
aI1
aI0
aI0
aa(lp205
I1
aI0
aI0
aI0
aa(lp206
I3
aI2
aI0
aI0
aa(lp207
I2
aI1
aI0
aI0
aa(lp208
I2
aI1
aI0
aI0
aa(lp209
I3
aI2
aI0
aI1
aa(lp210
I6
aI3
aI0
aI0
aa(lp211
I4
aI3
aI0
aI0
aa(lp212
I6
aI3
aI0
aI0
aa(lp213
I3
aI2
aI0
aI0
aa(lp214
I4
aI1
aI0
aI0
aa(lp215
I2
aI1
aI0
aI0
aa(lp216
I4
aI3
aI0
aI0
aa(lp217
I6
aI3
aI0
aI0
aa(lp218
I2
aI1
aI0
aI0
aa(lp219
I2
aI1
aI0
aI0
aa(lp220
I2
aI1
aI0
aI0
aa(lp221
I4
aI3
aI0
aI0
aa(lp222
I2
aI1
aI0
aI0
aa(lp223
I2
aI1
aI0
aI0
aa(lp224
I8
aI6
aI0
aI0
aa(lp225
I3
aI1
aI0
aI0
aa(lp226
I3
aI2
aI0
aI0
aa(lp227
I8
aI4
aI0
aI0
aa(lp228
I2
aI1
aI0
aI0
aa(lp229
I3
aI2
aI0
aI0
aa(lp230
I2
aI1
aI0
aI0
aa(lp231
I3
aI2
aI0
aI0
aa(lp232
I1
aI0
aI0
aI0
aa(lp233
I3
aI2
aI0
aI0
aa(lp234
I6
aI4
aI0
aI0
aa(lp235
I3
aI2
aI0
aI0
aa(lp236
I4
aI3
aI0
aI0
aa(lp237
I3
aI2
aI0
aI0
aa(lp238
I4
aI2
aI0
aI0
aa(lp239
I3
aI2
aI0
aI0
aa(lp240
I3
aI1
aI0
aI0
aa(lp241
I1
aI0
aI0
aI0
aa(lp242
I3
aI2
aI0
aI0
aa(lp243
I3
aI2
aI0
aI0
aa(lp244
I4
aI2
aI0
aI0
aa(lp245
I5
aI3
aI0
aI0
aa(lp246
I2
aI1
aI0
aI0
aa(lp247
I7
aI4
aI0
aI0
aa(lp248
I3
aI2
aI0
aI0
aa(lp249
I3
aI2
aI0
aI0
aa(lp250
I2
aI1
aI0
aI0
aa(lp251
I4
aI2
aI0
aI0
aa(lp252
I2
aI1
aI0
aI0
aa(lp253
I3
aI2
aI0
aI0
aa(lp254
I0
aI0
aI0
aI0
aa(lp255
I3
aI2
aI0
aI0
aa(lp256
I0
aI0
aI0
aI0
aa(lp257
I7
aI3
aI0
aI0
aa(lp258
I3
aI2
aI0
aI0
aa(lp259
I5
aI3
aI0
aI0
aa(lp260
I3
aI2
aI0
aI0
aa(lp261
I2
aI1
aI0
aI0
aa(lp262
I3
aI2
aI0
aI0
aa(lp263
I2
aI1
aI0
aI0
aa(lp264
I8
aI6
aI0
aI0
aa(lp265
I6
aI4
aI0
aI0
aa(lp266
I3
aI2
aI0
aI0
aa(lp267
I4
aI2
aI0
aI0
aa(lp268
I6
aI4
aI0
aI0
aa(lp269
I2
aI1
aI0
aI0
aa(lp270
I4
aI3
aI0
aI0
aa(lp271
I3
aI2
aI0
aI0
aa(lp272
I2
aI1
aI0
aI0
aa(lp273
I4
aI2
aI0
aI0
aa(lp274
I6
aI4
aI0
aI0
aa(lp275
I3
aI2
aI0
aI0
aa(lp276
I2
aI1
aI0
aI0
aa(lp277
I2
aI1
aI0
aI0
aa(lp278
I3
aI2
aI0
aI0
aa(lp279
I3
aI2
aI0
aI0
aa(lp280
I4
aI2
aI0
aI0
aa(lp281
I6
aI3
aI0
aI1
aa(lp282
I3
aI2
aI0
aI0
aa(lp283
I5
aI2
aI0
aI0
aa(lp284
I3
aI2
aI0
aI0
aa(lp285
I6
aI4
aI0
aI0
aa(lp286
I2
aI1
aI0
aI0
aa(lp287
I4
aI2
aI0
aI0
aa(lp288
I2
aI1
aI0
aI1
aa(lp289
I3
aI2
aI0
aI0
aa(lp290
I3
aI2
aI0
aI0
aa(lp291
I3
aI2
aI0
aI0
aa(lp292
I2
aI1
aI0
aI0
aa(lp293
I7
aI3
aI0
aI0
aa(lp294
I6
aI4
aI0
aI0
aa(lp295
I1
aI0
aI0
aI0
aa(lp296
I2
aI1
aI0
aI0
aa(lp297
I4
aI3
aI0
aI0
aa(lp298
I2
aI1
aI0
aI0
aa(lp299
I5
aI3
aI0
aI0
aa(lp300
I0
aI0
aI0
aI0
aa(lp301
I0
aI0
aI0
aI0
aa(lp302
I2
aI0
aI0
aI0
aa(lp303
I0
aI0
aI0
aI0
aa(lp304
I2
aI1
aI0
aI0
aa(lp305
I3
aI1
aI0
aI0
aa(lp306
I3
aI2
aI0
aI0
aa(lp307
I3
aI2
aI0
aI0
aa(lp308
I4
aI3
aI0
aI0
aa(lp309
I2
aI1
aI0
aI0
aa(lp310
I3
aI2
aI0
aI0
aa(lp311
I5
aI3
aI0
aI0
aa(lp312
I1
aI0
aI0
aI0
aa(lp313
I4
aI2
aI0
aI0
aa(lp314
I4
aI2
aI0
aI0
aa(lp315
I2
aI1
aI0
aI0
aa(lp316
I2
aI1
aI0
aI0
aa(lp317
I6
aI4
aI0
aI0
aa(lp318
I2
aI1
aI0
aI0
aa(lp319
I2
aI1
aI0
aI0
aa(lp320
I2
aI0
aI0
aI0
aa(lp321
I3
aI2
aI0
aI0
aa(lp322
I3
aI2
aI0
aI0
aa(lp323
I3
aI2
aI0
aI0
aa(lp324
I4
aI2
aI0
aI0
aa(lp325
I4
aI1
aI0
aI0
aa(lp326
I5
aI3
aI0
aI0
aa(lp327
I2
aI1
aI0
aI0
aa(lp328
I3
aI2
aI0
aI0
aa(lp329
I4
aI2
aI0
aI0
aa(lp330
I3
aI2
aI0
aI0
aa(lp331
I1
aI0
aI0
aI0
aa(lp332
I3
aI2
aI0
aI0
aa(lp333
I3
aI2
aI0
aI0
aa(lp334
I2
aI0
aI0
aI0
aa(lp335
I4
aI3
aI0
aI0
aa(lp336
I2
aI1
aI0
aI0
aa(lp337
I4
aI2
aI0
aI0
aa(lp338
I1
aI0
aI0
aI0
aa(lp339
I3
aI2
aI0
aI0
aa(lp340
I5
aI3
aI0
aI0
aa(lp341
I5
aI4
aI0
aI0
aa(lp342
I3
aI1
aI0
aI0
aa(lp343
I2
aI1
aI0
aI0
aa(lp344
I4
aI1
aI0
aI0
aa(lp345
I3
aI1
aI0
aI0
aa(lp346
I6
aI4
aI0
aI0
aa(lp347
I1
aI0
aI0
aI0
aa(lp348
I1
aI0
aI0
aI0
aa(lp349
I8
aI4
aI0
aI1
aa(lp350
I4
aI3
aI0
aI0
aa(lp351
I3
aI1
aI0
aI0
aa(lp352
I6
aI4
aI0
aI0
aa(lp353
I1
aI0
aI0
aI0
aa(lp354
I4
aI3
aI0
aI0
aa(lp355
I2
aI1
aI0
aI0
aa(lp356
I3
aI2
aI0
aI0
aa(lp357
I6
aI3
aI0
aI0
aa(lp358
I6
aI4
aI0
aI0
aa(lp359
I3
aI2
aI0
aI0
aa(lp360
I2
aI1
aI0
aI0
aa(lp361
I2
aI0
aI0
aI0
aa(lp362
I6
aI4
aI0
aI0
aa(lp363
I4
aI2
aI0
aI0
aa(lp364
I1
aI0
aI0
aI0
aa(lp365
I2
aI1
aI0
aI0
aa(lp366
I3
aI2
aI0
aI0
aa(lp367
I3
aI2
aI0
aI0
aa(lp368
I3
aI2
aI0
aI0
aa(lp369
I1
aI0
aI0
aI0
aa(lp370
I4
aI2
aI0
aI0
aa(lp371
I4
aI2
aI0
aI0
aa(lp372
I3
aI2
aI0
aI0
aa(lp373
I3
aI2
aI0
aI0
aa(lp374
I3
aI2
aI0
aI0
aa(lp375
I3
aI2
aI0
aI0
aa(lp376
I3
aI2
aI0
aI0
aa(lp377
I3
aI2
aI0
aI0
aa(lp378
I3
aI2
aI0
aI0
aa(lp379
I6
aI4
aI0
aI0
aa(lp380
I5
aI3
aI0
aI0
aa(lp381
I3
aI2
aI0
aI0
aa(lp382
I2
aI1
aI0
aI0
aa(lp383
I2
aI1
aI0
aI0
aa(lp384
I4
aI3
aI0
aI0
aa(lp385
I2
aI1
aI0
aI0
aa(lp386
I5
aI3
aI0
aI0
aa(lp387
I2
aI1
aI0
aI0
aa(lp388
I4
aI3
aI0
aI0
aa(lp389
I3
aI2
aI0
aI0
aa(lp390
I2
aI1
aI0
aI0
aa(lp391
I3
aI2
aI0
aI0
aa(lp392
I2
aI1
aI0
aI0
aa(lp393
I3
aI2
aI0
aI0
aa(lp394
I2
aI1
aI0
aI0
aa(lp395
I4
aI2
aI0
aI0
aa(lp396
I7
aI3
aI0
aI0
aa(lp397
I2
aI0
aI0
aI0
aa(lp398
I2
aI1
aI0
aI0
aa(lp399
I7
aI5
aI0
aI0
aa(lp400
I4
aI2
aI0
aI0
aa(lp401
I4
aI2
aI0
aI0
aa(lp402
I3
aI2
aI0
aI0
aa(lp403
I3
aI2
aI0
aI0
aa(lp404
I3
aI2
aI0
aI0
aa(lp405
I4
aI2
aI0
aI0
aa(lp406
I2
aI1
aI0
aI0
aa(lp407
I3
aI2
aI0
aI0
aa(lp408
I2
aI1
aI0
aI0
aa(lp409
I2
aI1
aI0
aI0
aa(lp410
I2
aI1
aI0
aI0
aa(lp411
I5
aI3
aI0
aI0
aa(lp412
I1
aI0
aI0
aI0
aa(lp413
I2
aI1
aI0
aI0
aa(lp414
I3
aI2
aI0
aI0
aa(lp415
I5
aI3
aI0
aI0
aa(lp416
I3
aI2
aI0
aI0
aa(lp417
I3
aI2
aI0
aI0
aa(lp418
I5
aI3
aI0
aI0
aa(lp419
I8
aI6
aI0
aI0
aa(lp420
I5
aI3
aI0
aI0
aa(lp421
I1
aI0
aI0
aI0
aa(lp422
I3
aI1
aI0
aI2
aa(lp423
I2
aI1
aI0
aI0
aa(lp424
I4
aI3
aI0
aI1
aa(lp425
I2
aI1
aI0
aI0
aa(lp426
I3
aI0
aI0
aI0
aa(lp427
I1
aI0
aI0
aI0
aa(lp428
I1
aI0
aI0
aI0
aa(lp429
I0
aI0
aI0
aI0
aa(lp430
I3
aI2
aI0
aI0
aa(lp431
I1
aI0
aI0
aI0
aa(lp432
I1
aI0
aI0
aI0
aa(lp433
I3
aI2
aI0
aI0
aa(lp434
I5
aI3
aI0
aI0
aa(lp435
I4
aI3
aI0
aI0
aa(lp436
I6
aI4
aI0
aI0
aa(lp437
I10
aI10
aI0
aI0
aa(lp438
I1
aI0
aI0
aI0
aa(lp439
I3
aI1
aI0
aI0
aa(lp440
I2
aI1
aI0
aI0
aa(lp441
I2
aI1
aI0
aI0
aa(lp442
I4
aI2
aI0
aI0
aa(lp443
I3
aI2
aI0
aI0
aa(lp444
I3
aI2
aI0
aI0
aa(lp445
I0
aI0
aI0
aI0
aa(lp446
I2
aI1
aI0
aI0
aa(lp447
I4
aI2
aI0
aI0
aa(lp448
I2
aI1
aI0
aI0
aa(lp449
I4
aI3
aI0
aI0
aa(lp450
I2
aI1
aI0
aI0
aa(lp451
I4
aI3
aI0
aI0
aa(lp452
I2
aI1
aI0
aI0
aa(lp453
I3
aI2
aI0
aI0
aa(lp454
I2
aI1
aI0
aI0
aa(lp455
I2
aI1
aI0
aI0
aa(lp456
I1
aI0
aI0
aI0
aa(lp457
I2
aI1
aI0
aI0
aa(lp458
I5
aI3
aI0
aI0
aa(lp459
I5
aI3
aI0
aI0
aa(lp460
I3
aI2
aI0
aI0
aa(lp461
I6
aI4
aI0
aI0
aa(lp462
I6
aI4
aI0
aI0
aa(lp463
I3
aI2
aI0
aI0
aa(lp464
I3
aI2
aI0
aI0
aa(lp465
I3
aI2
aI0
aI0
aa(lp466
I1
aI0
aI0
aI0
aa(lp467
I3
aI2
aI0
aI0
aa(lp468
I1
aI0
aI0
aI0
aa(lp469
I3
aI2
aI0
aI0
aa(lp470
I4
aI2
aI0
aI0
aa(lp471
I1
aI0
aI0
aI0
aa(lp472
I2
aI1
aI0
aI0
aa(lp473
I2
aI1
aI0
aI0
aa(lp474
I0
aI0
aI0
aI0
aa(lp475
I3
aI2
aI0
aI0
aa(lp476
I3
aI2
aI0
aI0
aa(lp477
I2
aI1
aI0
aI0
aa(lp478
I3
aI2
aI0
aI0
aa(lp479
I2
aI1
aI0
aI0
aa(lp480
I4
aI3
aI0
aI0
aa(lp481
I1
aI0
aI0
aI0
aa(lp482
I1
aI0
aI0
aI0
aa(lp483
I1
aI0
aI0
aI0
aa(lp484
I2
aI1
aI0
aI0
aa(lp485
I5
aI3
aI0
aI0
aa(lp486
I2
aI1
aI0
aI0
aa(lp487
I2
aI1
aI0
aI0
aa(lp488
I2
aI1
aI0
aI0
aa(lp489
I3
aI1
aI0
aI0
aa(lp490
I2
aI0
aI0
aI2
aa(lp491
I8
aI6
aI0
aI0
aa(lp492
I6
aI4
aI0
aI0
aa(lp493
I2
aI1
aI0
aI0
aa(lp494
I5
aI4
aI0
aI0
aa(lp495
I3
aI1
aI0
aI0
aa(lp496
I4
aI2
aI0
aI0
aa(lp497
I7
aI4
aI0
aI0
aa(lp498
I3
aI2
aI0
aI0
aa(lp499
I2
aI1
aI0
aI0
aa(lp500
I1
aI0
aI0
aI0
aa(lp501
I7
aI4
aI0
aI0
aa(lp502
I3
aI2
aI0
aI0
aa(lp503
I3
aI2
aI0
aI0
aa(lp504
I4
aI2
aI0
aI0
aa(lp505
I4
aI2
aI0
aI0
aa(lp506
I1
aI0
aI0
aI0
aa(lp507
I2
aI1
aI0
aI0
aa(lp508
I4
aI2
aI0
aI0
aa(lp509
I4
aI3
aI0
aI0
aa(lp510
I3
aI2
aI0
aI0
aa(lp511
I2
aI1
aI0
aI0
aa(lp512
I1
aI0
aI0
aI0
aa(lp513
I4
aI3
aI0
aI0
aa(lp514
I3
aI2
aI0
aI0
aa(lp515
I3
aI2
aI0
aI0
aa(lp516
I3
aI2
aI0
aI0
aa(lp517
I1
aI0
aI0
aI0
aa(lp518
I5
aI3
aI0
aI0
aa(lp519
I5
aI3
aI0
aI1
aa(lp520
I1
aI0
aI0
aI0
aa(lp521
I4
aI2
aI0
aI0
aa(lp522
I3
aI2
aI0
aI0
aa(lp523
I3
aI2
aI0
aI0
aa(lp524
I2
aI1
aI0
aI0
aa(lp525
I5
aI3
aI0
aI0
aa(lp526
I5
aI3
aI0
aI0
aa(lp527
I2
aI1
aI0
aI0
aa(lp528
I8
aI6
aI0
aI0
aa(lp529
I3
aI2
aI0
aI0
aa(lp530
I3
aI2
aI0
aI0
aa(lp531
I2
aI1
aI0
aI0
aa(lp532
I2
aI1
aI0
aI0
aa(lp533
I4
aI2
aI0
aI0
aa(lp534
I4
aI3
aI0
aI0
aa(lp535
I3
aI2
aI0
aI0
aa(lp536
I2
aI1
aI0
aI0
aa(lp537
I2
aI1
aI0
aI0
aa(lp538
I1
aI0
aI0
aI0
aa(lp539
I2
aI1
aI0
aI0
aa(lp540
I2
aI1
aI0
aI0
aa(lp541
I3
aI2
aI0
aI0
aa(lp542
I2
aI1
aI0
aI0
aa(lp543
I1
aI0
aI0
aI0
aa(lp544
I2
aI1
aI0
aI0
aa(lp545
I1
aI0
aI0
aI0
aa(lp546
I2
aI1
aI0
aI0
aa(lp547
I3
aI2
aI0
aI0
aa(lp548
I2
aI1
aI0
aI0
aa(lp549
I1
aI0
aI0
aI0
aa(lp550
I5
aI3
aI0
aI0
aa(lp551
I5
aI1
aI0
aI0
aa(lp552
I3
aI2
aI0
aI0
aa(lp553
I2
aI1
aI0
aI0
aa(lp554
I3
aI2
aI0
aI0
aa(lp555
I3
aI2
aI0
aI0
aa(lp556
I5
aI3
aI0
aI0
aa(lp557
I4
aI2
aI0
aI0
aa(lp558
I5
aI3
aI0
aI0
aa(lp559
I6
aI4
aI0
aI0
aa(lp560
I2
aI1
aI0
aI0
aa(lp561
I3
aI2
aI0
aI0
aa(lp562
I3
aI2
aI0
aI0
aa(lp563
I2
aI1
aI0
aI0
aa(lp564
I3
aI2
aI0
aI0
aa(lp565
I0
aI0
aI0
aI0
aa(lp566
I2
aI1
aI0
aI0
aa(lp567
I3
aI1
aI0
aI0
aa(lp568
I4
aI2
aI0
aI0
aa(lp569
I3
aI2
aI0
aI0
aa(lp570
I2
aI1
aI0
aI0
aa(lp571
I2
aI1
aI0
aI0
aa(lp572
I2
aI1
aI0
aI0
aa(lp573
I2
aI1
aI0
aI0
aa(lp574
I4
aI2
aI0
aI0
aa(lp575
I3
aI1
aI0
aI0
aa(lp576
I9
aI5
aI0
aI0
aa(lp577
I6
aI4
aI0
aI0
aa(lp578
I2
aI1
aI0
aI0
aa(lp579
I3
aI2
aI0
aI0
aa(lp580
I2
aI1
aI0
aI0
aa(lp581
I4
aI2
aI0
aI0
aa(lp582
I2
aI1
aI0
aI0
aa(lp583
I3
aI2
aI0
aI0
aa(lp584
I3
aI2
aI0
aI0
aa(lp585
I4
aI3
aI0
aI0
aa(lp586
I3
aI2
aI0
aI0
aa(lp587
I4
aI3
aI0
aI0
aa(lp588
I4
aI3
aI0
aI1
aa(lp589
I2
aI1
aI0
aI0
aa(lp590
I2
aI1
aI0
aI0
aa(lp591
I1
aI0
aI0
aI0
aa(lp592
I5
aI3
aI0
aI0
aa(lp593
I3
aI2
aI0
aI0
aa(lp594
I1
aI0
aI0
aI0
aa(lp595
I6
aI4
aI0
aI0
aa(lp596
I3
aI2
aI0
aI0
aa(lp597
I3
aI2
aI0
aI0
aa(lp598
I3
aI2
aI0
aI0
aa(lp599
I3
aI2
aI0
aI0
aa(lp600
I3
aI2
aI0
aI0
aa(lp601
I3
aI2
aI0
aI0
aa(lp602
I3
aI2
aI0
aI0
aa(lp603
I3
aI2
aI0
aI0
aa(lp604
I1
aI0
aI0
aI0
aa(lp605
I1
aI0
aI0
aI0
aa(lp606
I2
aI1
aI0
aI0
aa(lp607
I5
aI3
aI0
aI0
aa(lp608
I0
aI0
aI0
aI0
aa(lp609
I3
aI2
aI0
aI0
aa(lp610
I1
aI0
aI0
aI0
aa(lp611
I2
aI1
aI0
aI0
aa(lp612
I4
aI2
aI0
aI0
aa(lp613
I2
aI1
aI0
aI0
aa(lp614
I3
aI2
aI0
aI0
aa(lp615
I6
aI5
aI0
aI0
aa(lp616
I2
aI1
aI0
aI0
aa(lp617
I3
aI2
aI0
aI0
aa(lp618
I0
aI0
aI0
aI0
aa(lp619
I3
aI1
aI0
aI0
aa(lp620
I2
aI1
aI0
aI0
aa(lp621
I9
aI6
aI0
aI0
aa(lp622
I4
aI3
aI0
aI0
aa(lp623
I2
aI1
aI0
aI0
aa(lp624
I3
aI2
aI0
aI0
aa(lp625
I4
aI3
aI0
aI0
aa(lp626
I2
aI1
aI0
aI0
aa(lp627
I2
aI1
aI0
aI0
aa(lp628
I3
aI2
aI0
aI0
aa(lp629
I1
aI0
aI0
aI0
aa(lp630
I4
aI2
aI0
aI0
aa(lp631
I3
aI2
aI0
aI0
aa(lp632
I4
aI2
aI0
aI0
aa(lp633
I3
aI1
aI0
aI0
aa(lp634
I2
aI1
aI0
aI0
aa(lp635
I2
aI0
aI0
aI0
aa(lp636
I2
aI1
aI0
aI0
aa(lp637
I3
aI2
aI0
aI0
aa(lp638
I3
aI2
aI0
aI0
aa(lp639
I2
aI1
aI0
aI0
aa(lp640
I3
aI2
aI0
aI0
aa(lp641
I4
aI2
aI0
aI0
aa(lp642
I5
aI3
aI0
aI0
aa(lp643
I2
aI1
aI0
aI0
aa(lp644
I3
aI2
aI0
aI0
aa(lp645
I3
aI2
aI0
aI0
aa(lp646
I5
aI3
aI0
aI0
aa(lp647
I1
aI0
aI0
aI0
aa(lp648
I2
aI1
aI0
aI0
aa(lp649
I3
aI2
aI0
aI0
aa(lp650
I4
aI3
aI0
aI0
aa(lp651
I2
aI1
aI0
aI0
aa(lp652
I3
aI2
aI0
aI0
aa(lp653
I2
aI1
aI0
aI0
aa(lp654
I2
aI1
aI0
aI0
aa(lp655
I2
aI1
aI0
aI0
aa(lp656
I3
aI1
aI0
aI0
aa(lp657
I4
aI2
aI0
aI0
aa(lp658
I3
aI2
aI0
aI0
aa(lp659
I4
aI2
aI0
aI0
aa(lp660
I10
aI7
aI0
aI0
aa(lp661
I4
aI2
aI0
aI0
aa(lp662
I2
aI1
aI0
aI0
aa(lp663
I4
aI3
aI0
aI0
aa(lp664
I2
aI1
aI0
aI0
aa(lp665
I4
aI2
aI0
aI0
aa(lp666
I1
aI0
aI0
aI0
aa(lp667
I1
aI0
aI0
aI0
aa(lp668
I2
aI1
aI0
aI0
aa(lp669
I1
aI0
aI0
aI0
aa(lp670
I2
aI1
aI0
aI0
aa(lp671
I4
aI2
aI0
aI0
aa(lp672
I4
aI3
aI0
aI0
aa(lp673
I3
aI2
aI0
aI0
aa(lp674
I1
aI0
aI0
aI0
aa(lp675
I7
aI5
aI0
aI0
aa(lp676
I3
aI2
aI0
aI0
aa(lp677
I3
aI2
aI0
aI0
aa(lp678
I2
aI1
aI0
aI0
aa.