(lp1
(lp2
I16
aI2
aI0
aI0
aa(lp3
I10
aI3
aI0
aI0
aa(lp4
I7
aI3
aI0
aI0
aa(lp5
I22
aI10
aI0
aI0
aa(lp6
I14
aI5
aI0
aI0
aa(lp7
I13
aI6
aI0
aI0
aa(lp8
I25
aI11
aI0
aI0
aa(lp9
I6
aI2
aI0
aI0
aa(lp10
I11
aI6
aI0
aI0
aa(lp11
I6
aI1
aI0
aI0
aa(lp12
I6
aI1
aI0
aI0
aa(lp13
I16
aI6
aI0
aI0
aa(lp14
I6
aI2
aI0
aI0
aa(lp15
I10
aI4
aI0
aI0
aa(lp16
I10
aI3
aI0
aI0
aa(lp17
I14
aI5
aI0
aI0
aa(lp18
I6
aI1
aI0
aI0
aa(lp19
I12
aI4
aI0
aI0
aa(lp20
I18
aI7
aI0
aI0
aa(lp21
I5
aI1
aI0
aI0
aa(lp22
I11
aI6
aI0
aI0
aa(lp23
I8
aI3
aI0
aI0
aa(lp24
I8
aI2
aI0
aI0
aa(lp25
I8
aI2
aI0
aI0
aa(lp26
I22
aI10
aI0
aI1
aa(lp27
I14
aI6
aI0
aI0
aa(lp28
I12
aI7
aI0
aI0
aa(lp29
I18
aI8
aI0
aI0
aa(lp30
I22
aI7
aI0
aI0
aa(lp31
I18
aI9
aI0
aI0
aa(lp32
I8
aI3
aI0
aI0
aa(lp33
I7
aI2
aI0
aI0
aa(lp34
I8
aI3
aI0
aI0
aa(lp35
I11
aI4
aI0
aI0
aa(lp36
I16
aI5
aI0
aI2
aa(lp37
I10
aI6
aI0
aI0
aa(lp38
I14
aI5
aI0
aI0
aa(lp39
I5
aI2
aI0
aI0
aa(lp40
I6
aI3
aI0
aI0
aa(lp41
I12
aI7
aI0
aI0
aa(lp42
I5
aI1
aI0
aI0
aa(lp43
I18
aI7
aI0
aI0
aa(lp44
I9
aI3
aI0
aI0
aa(lp45
I15
aI6
aI0
aI0
aa(lp46
I10
aI3
aI0
aI0
aa(lp47
I20
aI9
aI0
aI0
aa(lp48
I11
aI3
aI0
aI0
aa(lp49
I20
aI11
aI0
aI1
aa(lp50
I8
aI2
aI0
aI0
aa(lp51
I8
aI4
aI0
aI0
aa(lp52
I12
aI4
aI0
aI0
aa(lp53
I12
aI5
aI0
aI0
aa(lp54
I19
aI9
aI0
aI0
aa(lp55
I9
aI2
aI0
aI0
aa(lp56
I6
aI2
aI0
aI0
aa(lp57
I8
aI2
aI0
aI0
aa(lp58
I15
aI6
aI0
aI0
aa(lp59
I26
aI8
aI0
aI0
aa(lp60
I6
aI3
aI0
aI0
aa(lp61
I16
aI6
aI0
aI0
aa(lp62
I5
aI0
aI0
aI0
aa(lp63
I6
aI1
aI0
aI0
aa(lp64
I5
aI1
aI0
aI0
aa(lp65
I10
aI2
aI0
aI0
aa(lp66
I7
aI1
aI0
aI0
aa(lp67
I13
aI8
aI0
aI0
aa(lp68
I7
aI2
aI0
aI0
aa(lp69
I10
aI3
aI0
aI0
aa(lp70
I8
aI2
aI0
aI2
aa(lp71
I17
aI5
aI0
aI0
aa(lp72
I5
aI2
aI0
aI0
aa(lp73
I13
aI5
aI0
aI0
aa(lp74
I18
aI3
aI0
aI0
aa(lp75
I7
aI3
aI0
aI1
aa(lp76
I3
aI2
aI0
aI0
aa(lp77
I4
aI1
aI0
aI0
aa(lp78
I9
aI3
aI0
aI0
aa(lp79
I18
aI7
aI0
aI0
aa(lp80
I11
aI3
aI0
aI0
aa(lp81
I11
aI4
aI0
aI1
aa(lp82
I4
aI1
aI0
aI0
aa(lp83
I16
aI7
aI0
aI0
aa(lp84
I12
aI5
aI0
aI0
aa(lp85
I10
aI3
aI0
aI0
aa(lp86
I3
aI0
aI0
aI0
aa(lp87
I3
aI2
aI0
aI1
aa(lp88
I11
aI6
aI0
aI0
aa(lp89
I5
aI1
aI0
aI0
aa(lp90
I9
aI1
aI0
aI0
aa(lp91
I20
aI4
aI0
aI0
aa(lp92
I12
aI2
aI0
aI0
aa(lp93
I6
aI3
aI0
aI0
aa(lp94
I13
aI5
aI0
aI0
aa(lp95
I21
aI11
aI0
aI0
aa(lp96
I6
aI1
aI0
aI0
aa(lp97
I12
aI2
aI0
aI0
aa(lp98
I8
aI4
aI0
aI0
aa(lp99
I21
aI7
aI0
aI0
aa(lp100
I24
aI10
aI0
aI0
aa(lp101
I5
aI2
aI0
aI0
aa(lp102
I5
aI1
aI0
aI0
aa(lp103
I10
aI3
aI0
aI0
aa(lp104
I5
aI3
aI0
aI0
aa(lp105
I23
aI13
aI0
aI0
aa(lp106
I10
aI3
aI0
aI2
aa(lp107
I9
aI5
aI0
aI0
aa(lp108
I5
aI2
aI0
aI0
aa(lp109
I6
aI1
aI0
aI0
aa(lp110
I6
aI1
aI0
aI0
aa(lp111
I17
aI10
aI0
aI0
aa.