(lp1
(lp2
I13
aI6
aI0
aI6
aa(lp3
I5
aI1
aI0
aI4
aa(lp4
I3
aI1
aI0
aI2
aa(lp5
I3
aI1
aI0
aI2
aa(lp6
I13
aI4
aI0
aI8
aa(lp7
I0
aI0
aI0
aI0
aa(lp8
I25
aI8
aI0
aI18
aa(lp9
I14
aI5
aI0
aI10
aa(lp10
I0
aI0
aI0
aI0
aa(lp11
I4
aI2
aI0
aI2
aa(lp12
I3
aI1
aI0
aI2
aa(lp13
I0
aI0
aI0
aI0
aa(lp14
I3
aI1
aI0
aI2
aa(lp15
I23
aI13
aI0
aI10
aa(lp16
I0
aI0
aI0
aI0
aa(lp17
I3
aI1
aI0
aI2
aa(lp18
I13
aI4
aI0
aI8
aa(lp19
I6
aI2
aI0
aI4
aa(lp20
I8
aI5
aI0
aI4
aa(lp21
I3
aI1
aI0
aI2
aa(lp22
I12
aI5
aI0
aI8
aa(lp23
I9
aI5
aI0
aI4
aa(lp24
I15
aI8
aI0
aI8
aa(lp25
I3
aI1
aI0
aI2
aa(lp26
I0
aI0
aI0
aI0
aa(lp27
I6
aI2
aI0
aI4
aa(lp28
I47
aI19
aI0
aI28
aa(lp29
I0
aI0
aI0
aI0
aa(lp30
I11
aI4
aI0
aI8
aa(lp31
I8
aI4
aI0
aI4
aa(lp32
I5
aI2
aI0
aI3
aa(lp33
I8
aI4
aI0
aI4
aa(lp34
I16
aI3
aI0
aI14
aa(lp35
I14
aI4
aI0
aI10
aa(lp36
I8
aI2
aI0
aI6
aa(lp37
I9
aI6
aI0
aI4
aa(lp38
I37
aI13
aI0
aI24
aa(lp39
I3
aI1
aI0
aI2
aa(lp40
I0
aI0
aI0
aI0
aa(lp41
I6
aI2
aI0
aI4
aa(lp42
I4
aI2
aI0
aI2
aa(lp43
I3
aI1
aI0
aI2
aa(lp44
I121
aI54
aI0
aI66
aa(lp45
I0
aI0
aI0
aI0
aa(lp46
I4
aI2
aI0
aI2
aa(lp47
I24
aI11
aI0
aI12
aa(lp48
I5
aI2
aI0
aI4
aa(lp49
I6
aI2
aI0
aI4
aa(lp50
I3
aI1
aI0
aI2
aa(lp51
I4
aI2
aI0
aI2
aa(lp52
I4
aI2
aI0
aI2
aa(lp53
I4
aI2
aI0
aI2
aa(lp54
I4
aI2
aI0
aI2
aa(lp55
I7
aI2
aI0
aI6
aa(lp56
I5
aI2
aI0
aI2
aa(lp57
I5
aI3
aI0
aI3
aa(lp58
I0
aI0
aI0
aI0
aa(lp59
I13
aI7
aI0
aI6
aa(lp60
I0
aI0
aI0
aI0
aa(lp61
I16
aI7
aI0
aI10
aa(lp62
I34
aI13
aI0
aI18
aa(lp63
I9
aI4
aI0
aI6
aa(lp64
I0
aI0
aI0
aI0
aa(lp65
I8
aI4
aI0
aI4
aa(lp66
I11
aI5
aI0
aI6
aa(lp67
I10
aI6
aI0
aI4
aa(lp68
I0
aI0
aI0
aI0
aa(lp69
I4
aI1
aI0
aI2
aa(lp70
I14
aI6
aI0
aI8
aa(lp71
I11
aI3
aI0
aI8
aa(lp72
I3
aI1
aI0
aI2
aa(lp73
I21
aI7
aI0
aI14
aa(lp74
I27
aI4
aI0
aI18
aa(lp75
I28
aI1
aI0
aI14
aa(lp76
I4
aI2
aI0
aI2
aa(lp77
I4
aI0
aI0
aI4
aa(lp78
I13
aI5
aI0
aI8
aa(lp79
I9
aI4
aI0
aI4
aa(lp80
I11
aI6
aI0
aI4
aa(lp81
I8
aI4
aI0
aI4
aa(lp82
I0
aI0
aI0
aI0
aa(lp83
I0
aI0
aI0
aI0
aa(lp84
I8
aI4
aI0
aI4
aa(lp85
I3
aI1
aI0
aI2
aa(lp86
I14
aI7
aI0
aI8
aa(lp87
I15
aI6
aI0
aI8
aa(lp88
I5
aI2
aI0
aI3
aa(lp89
I4
aI2
aI0
aI2
aa(lp90
I0
aI0
aI0
aI0
aa(lp91
I11
aI4
aI0
aI6
aa(lp92
I8
aI3
aI0
aI4
aa(lp93
I22
aI9
aI0
aI14
aa(lp94
I21
aI11
aI0
aI12
aa(lp95
I3
aI1
aI0
aI2
aa(lp96
I6
aI2
aI0
aI4
aa(lp97
I10
aI4
aI0
aI6
aa(lp98
I4
aI2
aI0
aI3
aa(lp99
I15
aI7
aI0
aI9
aa(lp100
I24
aI12
aI0
aI12
aa(lp101
I27
aI13
aI0
aI14
aa(lp102
I0
aI0
aI0
aI0
aa(lp103
I13
aI4
aI0
aI8
aa(lp104
I0
aI0
aI0
aI0
aa(lp105
I6
aI2
aI0
aI4
aa(lp106
I29
aI11
aI0
aI20
aa(lp107
I10
aI0
aI0
aI10
aa(lp108
I5
aI2
aI0
aI2
aa(lp109
I0
aI0
aI0
aI0
aa(lp110
I10
aI4
aI0
aI6
aa(lp111
I4
aI2
aI0
aI2
aa(lp112
I0
aI0
aI0
aI0
aa(lp113
I21
aI6
aI0
aI8
aa(lp114
I4
aI2
aI0
aI2
aa(lp115
I6
aI2
aI0
aI4
aa(lp116
I4
aI2
aI0
aI2
aa(lp117
I7
aI3
aI0
aI2
aa(lp118
I4
aI2
aI0
aI2
aa(lp119
I0
aI0
aI0
aI0
aa(lp120
I0
aI0
aI0
aI0
aa(lp121
I4
aI1
aI0
aI2
aa(lp122
I22
aI12
aI0
aI10
aa(lp123
I3
aI1
aI0
aI2
aa(lp124
I5
aI1
aI0
aI4
aa(lp125
I3
aI1
aI0
aI2
aa(lp126
I18
aI7
aI0
aI14
aa(lp127
I10
aI4
aI0
aI6
aa(lp128
I7
aI2
aI0
aI6
aa(lp129
I0
aI0
aI0
aI0
aa(lp130
I7
aI3
aI0
aI4
aa(lp131
I0
aI0
aI0
aI0
aa(lp132
I2
aI0
aI0
aI2
aa(lp133
I5
aI1
aI0
aI4
aa(lp134
I15
aI5
aI0
aI10
aa(lp135
I12
aI5
aI0
aI6
aa(lp136
I0
aI0
aI0
aI0
aa(lp137
I6
aI2
aI0
aI4
aa(lp138
I9
aI3
aI0
aI6
aa(lp139
I14
aI5
aI0
aI7
aa(lp140
I10
aI6
aI0
aI4
aa(lp141
I3
aI1
aI0
aI2
aa(lp142
I3
aI1
aI0
aI2
aa(lp143
I12
aI7
aI0
aI4
aa(lp144
I3
aI1
aI0
aI2
aa(lp145
I3
aI1
aI0
aI2
aa(lp146
I5
aI3
aI0
aI2
aa(lp147
I3
aI1
aI0
aI2
aa(lp148
I8
aI2
aI0
aI6
aa(lp149
I13
aI4
aI0
aI8
aa(lp150
I3
aI1
aI0
aI2
aa(lp151
I0
aI0
aI0
aI0
aa(lp152
I0
aI0
aI0
aI0
aa(lp153
I12
aI2
aI0
aI10
aa(lp154
I21
aI11
aI0
aI10
aa(lp155
I93
aI35
aI0
aI46
aa(lp156
I0
aI0
aI0
aI0
aa(lp157
I6
aI2
aI0
aI4
aa(lp158
I5
aI3
aI0
aI2
aa(lp159
I24
aI6
aI0
aI18
aa(lp160
I3
aI1
aI0
aI2
aa(lp161
I0
aI0
aI0
aI0
aa(lp162
I61
aI25
aI0
aI42
aa(lp163
I7
aI5
aI0
aI2
aa(lp164
I8
aI4
aI0
aI4
aa(lp165
I6
aI0
aI0
aI6
aa(lp166
I8
aI3
aI0
aI6
aa(lp167
I16
aI6
aI0
aI10
aa(lp168
I9
aI2
aI0
aI6
aa(lp169
I0
aI0
aI0
aI0
aa(lp170
I30
aI10
aI0
aI22
aa(lp171
I4
aI2
aI0
aI2
aa(lp172
I7
aI3
aI0
aI4
aa(lp173
I0
aI0
aI0
aI0
aa(lp174
I4
aI2
aI0
aI2
aa(lp175
I4
aI2
aI0
aI2
aa(lp176
I5
aI3
aI0
aI3
aa(lp177
I8
aI4
aI0
aI4
aa(lp178
I8
aI3
aI0
aI6
aa(lp179
I5
aI1
aI0
aI4
aa(lp180
I0
aI0
aI0
aI0
aa(lp181
I4
aI2
aI0
aI2
aa(lp182
I4
aI2
aI0
aI2
aa(lp183
I5
aI3
aI0
aI2
aa(lp184
I14
aI7
aI0
aI8
aa(lp185
I15
aI7
aI0
aI8
aa(lp186
I15
aI8
aI0
aI8
aa(lp187
I4
aI2
aI0
aI2
aa(lp188
I4
aI2
aI0
aI2
aa(lp189
I5
aI3
aI0
aI2
aa(lp190
I9
aI1
aI0
aI8
aa(lp191
I4
aI2
aI0
aI2
aa(lp192
I3
aI1
aI0
aI2
aa(lp193
I0
aI0
aI0
aI0
aa(lp194
I7
aI4
aI0
aI4
aa(lp195
I5
aI3
aI0
aI3
aa(lp196
I24
aI8
aI0
aI16
aa(lp197
I0
aI0
aI0
aI0
aa(lp198
I4
aI2
aI0
aI2
aa(lp199
I5
aI2
aI0
aI2
aa(lp200
I3
aI0
aI0
aI2
aa(lp201
I4
aI2
aI0
aI2
aa(lp202
I10
aI4
aI0
aI6
aa(lp203
I6
aI2
aI0
aI4
aa(lp204
I5
aI2
aI0
aI2
aa(lp205
I41
aI9
aI0
aI28
aa(lp206
I4
aI2
aI0
aI3
aa(lp207
I3
aI1
aI0
aI2
aa(lp208
I3
aI1
aI0
aI2
aa(lp209
I17
aI7
aI0
aI10
aa(lp210
I14
aI7
aI0
aI8
aa(lp211
I27
aI11
aI0
aI16
aa(lp212
I3
aI2
aI0
aI0
aa(lp213
I0
aI0
aI0
aI0
aa(lp214
I25
aI12
aI0
aI14
aa(lp215
I19
aI7
aI0
aI12
aa(lp216
I5
aI2
aI0
aI2
aa(lp217
I10
aI4
aI0
aI6
aa(lp218
I7
aI3
aI0
aI4
aa(lp219
I12
aI5
aI0
aI8
aa(lp220
I74
aI27
aI0
aI51
aa(lp221
I12
aI6
aI0
aI6
aa(lp222
I3
aI1
aI0
aI2
aa(lp223
I4
aI2
aI0
aI2
aa(lp224
I44
aI19
aI0
aI26
aa(lp225
I15
aI7
aI0
aI10
aa(lp226
I3
aI1
aI0
aI2
aa(lp227
I66
aI21
aI0
aI44
aa(lp228
I16
aI6
aI0
aI10
aa(lp229
I3
aI1
aI0
aI2
aa(lp230
I12
aI4
aI0
aI8
aa(lp231
I4
aI2
aI0
aI2
aa(lp232
I36
aI12
aI0
aI12
aa(lp233
I4
aI2
aI0
aI2
aa(lp234
I48
aI12
aI0
aI34
aa(lp235
I3
aI1
aI0
aI2
aa(lp236
I12
aI3
aI0
aI10
aa(lp237
I6
aI2
aI0
aI4
aa(lp238
I0
aI0
aI0
aI0
aa(lp239
I133
aI50
aI0
aI80
aa(lp240
I29
aI14
aI0
aI14
aa(lp241
I0
aI0
aI0
aI0
aa(lp242
I19
aI7
aI0
aI12
aa(lp243
I21
aI12
aI0
aI12
aa(lp244
I6
aI2
aI0
aI4
aa(lp245
I2
aI0
aI0
aI2
aa(lp246
I3
aI1
aI0
aI2
aa(lp247
I8
aI2
aI0
aI6
aa(lp248
I0
aI0
aI0
aI0
aa(lp249
I4
aI2
aI0
aI2
aa(lp250
I36
aI6
aI0
aI30
aa(lp251
I7
aI4
aI0
aI4
aa(lp252
I15
aI7
aI0
aI8
aa(lp253
I16
aI8
aI0
aI8
aa(lp254
I7
aI1
aI0
aI6
aa(lp255
I10
aI4
aI0
aI8
aa(lp256
I5
aI2
aI0
aI2
aa(lp257
I6
aI2
aI0
aI4
aa(lp258
I8
aI2
aI0
aI4
aa(lp259
I11
aI5
aI0
aI6
aa(lp260
I10
aI4
aI0
aI6
aa(lp261
I9
aI3
aI0
aI6
aa(lp262
I23
aI8
aI0
aI14
aa(lp263
I4
aI2
aI0
aI2
aa(lp264
I10
aI4
aI0
aI6
aa(lp265
I12
aI6
aI0
aI7
aa(lp266
I3
aI1
aI0
aI2
aa(lp267
I19
aI8
aI0
aI12
aa(lp268
I4
aI2
aI0
aI2
aa(lp269
I31
aI12
aI0
aI18
aa(lp270
I3
aI1
aI0
aI2
aa(lp271
I4
aI2
aI0
aI2
aa(lp272
I15
aI5
aI0
aI10
aa(lp273
I5
aI1
aI0
aI4
aa(lp274
I3
aI1
aI0
aI2
aa(lp275
I3
aI1
aI0
aI2
aa(lp276
I12
aI6
aI0
aI6
aa(lp277
I3
aI1
aI0
aI2
aa(lp278
I8
aI3
aI0
aI6
aa(lp279
I8
aI3
aI0
aI4
aa(lp280
I5
aI2
aI0
aI4
aa(lp281
I0
aI0
aI0
aI0
aa(lp282
I9
aI3
aI0
aI4
aa(lp283
I0
aI0
aI0
aI0
aa(lp284
I13
aI4
aI0
aI8
aa(lp285
I4
aI2
aI0
aI2
aa(lp286
I18
aI8
aI0
aI10
aa(lp287
I0
aI0
aI0
aI0
aa(lp288
I5
aI3
aI0
aI2
aa(lp289
I3
aI1
aI0
aI2
aa(lp290
I4
aI2
aI0
aI2
aa(lp291
I0
aI0
aI0
aI0
aa(lp292
I3
aI1
aI0
aI2
aa(lp293
I0
aI0
aI0
aI0
aa(lp294
I10
aI4
aI0
aI6
aa(lp295
I7
aI3
aI0
aI4
aa(lp296
I0
aI0
aI0
aI0
aa(lp297
I11
aI4
aI0
aI8
aa(lp298
I0
aI0
aI0
aI0
aa(lp299
I10
aI6
aI0
aI4
aa(lp300
I11
aI1
aI0
aI8
aa(lp301
I0
aI0
aI0
aI0
aa(lp302
I14
aI6
aI0
aI8
aa(lp303
I4
aI2
aI0
aI2
aa(lp304
I4
aI2
aI0
aI2
aa(lp305
I32
aI11
aI0
aI22
aa(lp306
I0
aI0
aI0
aI0
aa(lp307
I0
aI0
aI0
aI0
aa(lp308
I9
aI3
aI0
aI6
aa(lp309
I6
aI3
aI0
aI2
aa(lp310
I4
aI2
aI0
aI2
aa(lp311
I0
aI0
aI0
aI0
aa(lp312
I20
aI12
aI0
aI8
aa(lp313
I7
aI3
aI0
aI2
aa(lp314
I0
aI0
aI0
aI0
aa(lp315
I4
aI2
aI0
aI2
aa(lp316
I10
aI4
aI0
aI6
aa(lp317
I0
aI0
aI0
aI0
aa(lp318
I0
aI0
aI0
aI0
aa(lp319
I21
aI10
aI0
aI12
aa(lp320
I0
aI0
aI0
aI0
aa(lp321
I27
aI10
aI0
aI18
aa(lp322
I5
aI3
aI0
aI2
aa(lp323
I12
aI4
aI0
aI8
aa(lp324
I30
aI12
aI0
aI18
aa(lp325
I3
aI1
aI0
aI2
aa(lp326
I0
aI0
aI0
aI0
aa(lp327
I2
aI0
aI0
aI2
aa(lp328
I3
aI1
aI0
aI2
aa(lp329
I0
aI0
aI0
aI0
aa(lp330
I21
aI8
aI0
aI12
aa(lp331
I6
aI3
aI0
aI2
aa(lp332
I25
aI10
aI0
aI16
aa(lp333
I3
aI1
aI0
aI2
aa(lp334
I2
aI0
aI0
aI2
aa(lp335
I7
aI3
aI0
aI4
aa(lp336
I9
aI2
aI0
aI6
aa(lp337
I19
aI10
aI0
aI10
aa(lp338
I0
aI0
aI0
aI0
aa(lp339
I0
aI0
aI0
aI0
aa(lp340
I4
aI2
aI0
aI2
aa(lp341
I10
aI6
aI0
aI4
aa(lp342
I0
aI0
aI0
aI0
aa(lp343
I4
aI2
aI0
aI2
aa(lp344
I6
aI2
aI0
aI4
aa(lp345
I0
aI0
aI0
aI0
aa(lp346
I8
aI4
aI0
aI4
aa(lp347
I3
aI1
aI0
aI2
aa(lp348
I13
aI6
aI0
aI8
aa(lp349
I15
aI6
aI0
aI10
aa(lp350
I0
aI0
aI0
aI0
aa(lp351
I5
aI1
aI0
aI4
aa(lp352
I8
aI4
aI0
aI4
aa(lp353
I6
aI2
aI0
aI4
aa(lp354
I9
aI3
aI0
aI6
aa(lp355
I13
aI4
aI0
aI10
aa(lp356
I0
aI0
aI0
aI0
aa(lp357
I0
aI0
aI0
aI0
aa(lp358
I0
aI0
aI0
aI0
aa(lp359
I4
aI2
aI0
aI2
aa(lp360
I16
aI0
aI0
aI8
aa(lp361
I13
aI3
aI0
aI10
aa(lp362
I5
aI1
aI0
aI4
aa(lp363
I0
aI0
aI0
aI0
aa(lp364
I76
aI26
aI0
aI52
aa(lp365
I4
aI2
aI0
aI2
aa(lp366
I7
aI1
aI0
aI6
aa(lp367
I19
aI6
aI0
aI12
aa(lp368
I7
aI1
aI0
aI6
aa(lp369
I8
aI4
aI0
aI4
aa(lp370
I12
aI4
aI0
aI8
aa(lp371
I6
aI2
aI0
aI4
aa(lp372
I0
aI0
aI0
aI0
aa(lp373
I4
aI2
aI0
aI2
aa(lp374
I4
aI2
aI0
aI2
aa(lp375
I18
aI9
aI0
aI14
aa(lp376
I4
aI2
aI0
aI2
aa(lp377
I8
aI4
aI0
aI4
aa(lp378
I32
aI13
aI0
aI24
aa(lp379
I6
aI2
aI0
aI4
aa(lp380
I6
aI2
aI0
aI4
aa(lp381
I6
aI3
aI0
aI4
aa(lp382
I6
aI2
aI0
aI4
aa(lp383
I10
aI1
aI0
aI10
aa(lp384
I9
aI4
aI0
aI6
aa(lp385
I33
aI12
aI0
aI18
aa(lp386
I3
aI1
aI0
aI2
aa(lp387
I3
aI1
aI0
aI2
aa(lp388
I17
aI7
aI0
aI12
aa(lp389
I3
aI1
aI0
aI2
aa(lp390
I5
aI3
aI0
aI2
aa(lp391
I0
aI0
aI0
aI0
aa(lp392
I0
aI0
aI0
aI0
aa(lp393
I0
aI0
aI0
aI0
aa(lp394
I5
aI3
aI0
aI2
aa(lp395
I5
aI2
aI0
aI4
aa(lp396
I11
aI2
aI0
aI6
aa(lp397
I20
aI5
aI0
aI12
aa(lp398
I3
aI1
aI0
aI2
aa(lp399
I4
aI2
aI0
aI2
aa(lp400
I4
aI0
aI0
aI4
aa(lp401
I13
aI5
aI0
aI8
aa(lp402
I0
aI0
aI0
aI0
aa(lp403
I7
aI2
aI0
aI6
aa(lp404
I0
aI0
aI0
aI0
aa(lp405
I7
aI3
aI0
aI4
aa(lp406
I37
aI11
aI0
aI26
aa(lp407
I4
aI2
aI0
aI2
aa(lp408
I19
aI4
aI0
aI12
aa(lp409
I4
aI1
aI0
aI2
aa(lp410
I0
aI0
aI0
aI0
aa(lp411
I4
aI2
aI0
aI2
aa(lp412
I2
aI0
aI0
aI2
aa(lp413
I4
aI2
aI0
aI2
aa(lp414
I0
aI0
aI0
aI0
aa(lp415
I0
aI0
aI0
aI0
aa(lp416
I0
aI0
aI0
aI0
aa(lp417
I0
aI0
aI0
aI0
aa(lp418
I25
aI10
aI0
aI14
aa(lp419
I2
aI0
aI0
aI2
aa(lp420
I0
aI0
aI0
aI0
aa(lp421
I0
aI0
aI0
aI0
aa(lp422
I0
aI0
aI0
aI0
aa(lp423
I18
aI7
aI0
aI12
aa(lp424
I0
aI0
aI0
aI0
aa(lp425
I4
aI2
aI0
aI2
aa(lp426
I3
aI1
aI0
aI2
aa(lp427
I0
aI0
aI0
aI0
aa(lp428
I15
aI6
aI0
aI10
aa(lp429
I4
aI1
aI0
aI4
aa(lp430
I0
aI0
aI0
aI0
aa(lp431
I7
aI3
aI0
aI4
aa(lp432
I0
aI0
aI0
aI0
aa(lp433
I13
aI6
aI0
aI12
aa(lp434
I14
aI6
aI0
aI8
aa(lp435
I3
aI1
aI0
aI2
aa(lp436
I0
aI0
aI0
aI0
aa(lp437
I3
aI1
aI0
aI2
aa(lp438
I4
aI0
aI0
aI4
aa(lp439
I6
aI3
aI0
aI4
aa(lp440
I36
aI11
aI0
aI26
aa(lp441
I0
aI0
aI0
aI0
aa(lp442
I4
aI2
aI0
aI2
aa(lp443
I8
aI4
aI0
aI4
aa(lp444
I0
aI0
aI0
aI0
aa(lp445
I8
aI4
aI0
aI4
aa(lp446
I0
aI0
aI0
aI0
aa(lp447
I5
aI2
aI0
aI2
aa(lp448
I0
aI0
aI0
aI0
aa(lp449
I3
aI1
aI0
aI2
aa(lp450
I19
aI10
aI0
aI10
aa(lp451
I71
aI25
aI0
aI46
aa(lp452
I10
aI2
aI0
aI8
aa(lp453
I0
aI0
aI0
aI0
aa(lp454
I5
aI1
aI0
aI4
aa(lp455
I3
aI1
aI0
aI2
aa(lp456
I10
aI4
aI0
aI6
aa(lp457
I37
aI12
aI0
aI14
aa(lp458
I2
aI0
aI0
aI2
aa(lp459
I11
aI3
aI0
aI8
aa(lp460
I0
aI0
aI0
aI0
aa(lp461
I4
aI2
aI0
aI2
aa(lp462
I4
aI2
aI0
aI2
aa(lp463
I3
aI1
aI0
aI2
aa(lp464
I0
aI0
aI0
aI0
aa(lp465
I6
aI2
aI0
aI4
aa(lp466
I13
aI1
aI0
aI4
aa(lp467
I7
aI4
aI0
aI4
aa(lp468
I4
aI2
aI0
aI2
aa(lp469
I33
aI14
aI0
aI18
aa(lp470
I7
aI4
aI0
aI4
aa(lp471
I12
aI4
aI0
aI8
aa(lp472
I6
aI2
aI0
aI4
aa(lp473
I0
aI0
aI0
aI0
aa(lp474
I17
aI6
aI0
aI12
aa(lp475
I4
aI2
aI0
aI2
aa(lp476
I25
aI11
aI0
aI14
aa(lp477
I0
aI0
aI0
aI0
aa(lp478
I0
aI0
aI0
aI0
aa(lp479
I4
aI2
aI0
aI2
aa(lp480
I12
aI0
aI0
aI12
aa(lp481
I3
aI1
aI0
aI2
aa.