(lp1
(lp2
I11
aI6
aI0
aI0
aa(lp3
I0
aI0
aI0
aI0
aa(lp4
I0
aI0
aI0
aI0
aa(lp5
I6
aI4
aI0
aI0
aa(lp6
I7
aI6
aI0
aI0
aa(lp7
I2
aI1
aI0
aI0
aa(lp8
I8
aI4
aI0
aI0
aa(lp9
I9
aI6
aI0
aI1
aa(lp10
I4
aI2
aI0
aI0
aa(lp11
I0
aI0
aI0
aI0
aa(lp12
I2
aI1
aI0
aI0
aa(lp13
I8
aI5
aI0
aI0
aa(lp14
I2
aI1
aI0
aI0
aa(lp15
I5
aI1
aI0
aI0
aa(lp16
I5
aI1
aI0
aI0
aa(lp17
I6
aI4
aI0
aI0
aa(lp18
I7
aI4
aI0
aI0
aa(lp19
I2
aI1
aI0
aI0
aa(lp20
I7
aI6
aI0
aI0
aa(lp21
I21
aI12
aI0
aI0
aa(lp22
I4
aI2
aI0
aI0
aa(lp23
I70
aI35
aI0
aI0
aa(lp24
I2
aI1
aI0
aI0
aa(lp25
I10
aI5
aI0
aI0
aa(lp26
I4
aI2
aI0
aI0
aa(lp27
I6
aI4
aI0
aI0
aa(lp28
I24
aI14
aI0
aI0
aa(lp29
I0
aI0
aI0
aI0
aa(lp30
I2
aI1
aI0
aI0
aa(lp31
I3
aI2
aI0
aI0
aa(lp32
I6
aI4
aI0
aI0
aa(lp33
I0
aI0
aI0
aI0
aa(lp34
I10
aI7
aI0
aI0
aa(lp35
I3
aI1
aI0
aI0
aa(lp36
I4
aI1
aI0
aI0
aa(lp37
I0
aI0
aI0
aI0
aa(lp38
I4
aI2
aI0
aI0
aa(lp39
I22
aI14
aI0
aI0
aa(lp40
I0
aI0
aI0
aI0
aa(lp41
I2
aI1
aI0
aI0
aa(lp42
I11
aI8
aI0
aI0
aa(lp43
I9
aI5
aI0
aI0
aa(lp44
I0
aI0
aI0
aI0
aa(lp45
I2
aI1
aI0
aI0
aa(lp46
I3
aI1
aI0
aI0
aa(lp47
I6
aI4
aI0
aI0
aa(lp48
I2
aI1
aI0
aI0
aa(lp49
I3
aI2
aI0
aI0
aa(lp50
I3
aI2
aI0
aI0
aa(lp51
I4
aI2
aI0
aI0
aa(lp52
I2
aI1
aI0
aI0
aa(lp53
I31
aI19
aI0
aI0
aa(lp54
I0
aI0
aI0
aI0
aa(lp55
I7
aI4
aI0
aI0
aa(lp56
I6
aI5
aI0
aI0
aa(lp57
I6
aI4
aI0
aI0
aa(lp58
I2
aI1
aI0
aI0
aa(lp59
I3
aI2
aI0
aI0
aa(lp60
I2
aI1
aI0
aI0
aa(lp61
I0
aI0
aI0
aI0
aa(lp62
I12
aI7
aI0
aI0
aa(lp63
I3
aI2
aI0
aI0
aa(lp64
I14
aI5
aI0
aI0
aa(lp65
I0
aI0
aI0
aI0
aa(lp66
I5
aI3
aI0
aI0
aa(lp67
I7
aI3
aI0
aI0
aa(lp68
I5
aI2
aI0
aI0
aa(lp69
I18
aI13
aI0
aI0
aa(lp70
I3
aI2
aI0
aI0
aa(lp71
I1
aI0
aI0
aI0
aa(lp72
I6
aI4
aI0
aI0
aa(lp73
I2
aI1
aI0
aI0
aa(lp74
I48
aI25
aI0
aI0
aa(lp75
I3
aI2
aI0
aI0
aa(lp76
I3
aI2
aI0
aI0
aa(lp77
I0
aI0
aI0
aI0
aa(lp78
I2
aI1
aI0
aI0
aa(lp79
I6
aI2
aI0
aI0
aa(lp80
I49
aI27
aI0
aI1
aa(lp81
I3
aI2
aI0
aI0
aa(lp82
I3
aI2
aI0
aI0
aa(lp83
I7
aI1
aI0
aI0
aa(lp84
I0
aI0
aI0
aI0
aa(lp85
I5
aI3
aI0
aI0
aa(lp86
I4
aI3
aI0
aI0
aa(lp87
I3
aI2
aI0
aI0
aa(lp88
I6
aI4
aI0
aI0
aa(lp89
I0
aI0
aI0
aI0
aa(lp90
I4
aI3
aI0
aI1
aa(lp91
I11
aI9
aI0
aI0
aa(lp92
I0
aI0
aI0
aI0
aa(lp93
I2
aI0
aI0
aI0
aa(lp94
I0
aI0
aI0
aI0
aa(lp95
I5
aI3
aI0
aI0
aa(lp96
I3
aI1
aI0
aI0
aa(lp97
I0
aI0
aI0
aI0
aa(lp98
I6
aI5
aI0
aI0
aa(lp99
I3
aI2
aI0
aI0
aa(lp100
I9
aI4
aI0
aI0
aa(lp101
I0
aI0
aI0
aI0
aa(lp102
I4
aI3
aI0
aI0
aa(lp103
I2
aI1
aI0
aI0
aa(lp104
I16
aI11
aI0
aI0
aa(lp105
I0
aI0
aI0
aI0
aa(lp106
I0
aI0
aI0
aI0
aa(lp107
I25
aI13
aI0
aI0
aa(lp108
I0
aI0
aI0
aI0
aa(lp109
I7
aI2
aI0
aI0
aa(lp110
I17
aI10
aI0
aI0
aa(lp111
I24
aI12
aI0
aI0
aa(lp112
I4
aI3
aI0
aI0
aa(lp113
I4
aI2
aI0
aI0
aa(lp114
I8
aI5
aI0
aI0
aa(lp115
I0
aI0
aI0
aI0
aa(lp116
I0
aI0
aI0
aI0
aa(lp117
I0
aI0
aI0
aI0
aa(lp118
I3
aI2
aI0
aI0
aa(lp119
I4
aI2
aI0
aI1
aa(lp120
I2
aI1
aI0
aI0
aa(lp121
I4
aI3
aI0
aI0
aa(lp122
I20
aI13
aI0
aI0
aa(lp123
I5
aI3
aI0
aI0
aa(lp124
I4
aI2
aI0
aI0
aa(lp125
I0
aI0
aI0
aI0
aa(lp126
I3
aI2
aI0
aI0
aa(lp127
I7
aI3
aI0
aI0
aa(lp128
I50
aI26
aI0
aI0
aa(lp129
I9
aI4
aI0
aI0
aa(lp130
I9
aI4
aI0
aI0
aa(lp131
I10
aI7
aI0
aI0
aa(lp132
I3
aI2
aI0
aI1
aa(lp133
I0
aI0
aI0
aI0
aa(lp134
I2
aI1
aI0
aI0
aa(lp135
I0
aI0
aI0
aI0
aa(lp136
I5
aI3
aI0
aI0
aa(lp137
I3
aI2
aI0
aI0
aa(lp138
I3
aI1
aI0
aI0
aa(lp139
I4
aI2
aI0
aI0
aa(lp140
I0
aI0
aI0
aI0
aa(lp141
I9
aI6
aI0
aI0
aa(lp142
I0
aI0
aI0
aI0
aa(lp143
I3
aI2
aI0
aI0
aa(lp144
I0
aI0
aI0
aI0
aa(lp145
I6
aI2
aI0
aI0
aa(lp146
I0
aI0
aI0
aI0
aa(lp147
I3
aI1
aI0
aI0
aa(lp148
I7
aI4
aI0
aI0
aa(lp149
I9
aI5
aI0
aI0
aa(lp150
I13
aI7
aI0
aI0
aa(lp151
I6
aI0
aI0
aI0
aa(lp152
I0
aI0
aI0
aI0
aa(lp153
I4
aI2
aI0
aI0
aa(lp154
I6
aI4
aI0
aI0
aa(lp155
I14
aI10
aI0
aI0
aa(lp156
I12
aI0
aI0
aI0
aa(lp157
I11
aI7
aI0
aI0
aa(lp158
I5
aI0
aI0
aI0
aa(lp159
I4
aI1
aI0
aI0
aa(lp160
I2
aI1
aI0
aI0
aa(lp161
I11
aI8
aI0
aI0
aa(lp162
I5
aI4
aI0
aI0
aa(lp163
I0
aI0
aI0
aI0
aa(lp164
I5
aI4
aI0
aI0
aa(lp165
I0
aI0
aI0
aI0
aa(lp166
I4
aI3
aI0
aI0
aa(lp167
I4
aI2
aI0
aI0
aa(lp168
I0
aI0
aI0
aI0
aa(lp169
I9
aI5
aI0
aI0
aa(lp170
I8
aI6
aI0
aI0
aa(lp171
I3
aI2
aI0
aI0
aa(lp172
I2
aI1
aI0
aI0
aa(lp173
I22
aI12
aI0
aI0
aa(lp174
I3
aI2
aI0
aI0
aa(lp175
I21
aI6
aI0
aI0
aa(lp176
I14
aI10
aI0
aI0
aa(lp177
I8
aI4
aI0
aI0
aa(lp178
I6
aI4
aI0
aI0
aa(lp179
I2
aI1
aI0
aI0
aa(lp180
I2
aI0
aI0
aI0
aa(lp181
I15
aI11
aI0
aI0
aa(lp182
I0
aI0
aI0
aI0
aa(lp183
I93
aI50
aI0
aI0
aa(lp184
I0
aI0
aI0
aI0
aa(lp185
I8
aI6
aI0
aI0
aa(lp186
I6
aI3
aI0
aI0
aa(lp187
I0
aI0
aI0
aI0
aa(lp188
I8
aI6
aI0
aI0
aa(lp189
I2
aI1
aI0
aI0
aa(lp190
I2
aI1
aI0
aI0
aa(lp191
I27
aI9
aI0
aI0
aa(lp192
I5
aI3
aI0
aI0
aa(lp193
I0
aI0
aI0
aI0
aa(lp194
I13
aI7
aI0
aI0
aa(lp195
I3
aI2
aI0
aI0
aa(lp196
I7
aI4
aI0
aI0
aa(lp197
I25
aI13
aI0
aI0
aa(lp198
I3
aI2
aI0
aI0
aa(lp199
I19
aI11
aI0
aI0
aa(lp200
I0
aI0
aI0
aI0
aa(lp201
I4
aI2
aI0
aI0
aa(lp202
I1
aI0
aI0
aI0
aa(lp203
I9
aI4
aI0
aI0
aa(lp204
I4
aI1
aI0
aI0
aa(lp205
I31
aI12
aI0
aI0
aa(lp206
I10
aI6
aI0
aI0
aa(lp207
I11
aI6
aI0
aI0
aa(lp208
I2
aI1
aI0
aI0
aa(lp209
I7
aI4
aI0
aI0
aa(lp210
I10
aI6
aI0
aI0
aa(lp211
I0
aI0
aI0
aI0
aa(lp212
I5
aI3
aI0
aI0
aa(lp213
I3
aI2
aI0
aI0
aa(lp214
I7
aI4
aI0
aI0
aa(lp215
I3
aI2
aI0
aI0
aa(lp216
I14
aI7
aI0
aI0
aa(lp217
I2
aI1
aI0
aI0
aa(lp218
I11
aI7
aI0
aI0
aa(lp219
I11
aI7
aI0
aI0
aa(lp220
I2
aI1
aI0
aI0
aa(lp221
I7
aI4
aI0
aI0
aa(lp222
I40
aI25
aI0
aI0
aa(lp223
I7
aI4
aI0
aI0
aa(lp224
I4
aI2
aI0
aI0
aa(lp225
I2
aI1
aI0
aI0
aa(lp226
I0
aI0
aI0
aI0
aa(lp227
I8
aI4
aI0
aI0
aa(lp228
I8
aI3
aI0
aI0
aa(lp229
I5
aI3
aI0
aI0
aa(lp230
I0
aI0
aI0
aI0
aa(lp231
I3
aI2
aI0
aI0
aa(lp232
I2
aI1
aI0
aI0
aa(lp233
I4
aI3
aI0
aI0
aa(lp234
I0
aI0
aI0
aI0
aa(lp235
I0
aI0
aI0
aI0
aa(lp236
I0
aI0
aI0
aI0
aa(lp237
I0
aI0
aI0
aI0
aa(lp238
I0
aI0
aI0
aI0
aa(lp239
I6
aI4
aI0
aI0
aa(lp240
I18
aI11
aI0
aI0
aa(lp241
I2
aI1
aI0
aI0
aa(lp242
I9
aI4
aI0
aI0
aa(lp243
I3
aI2
aI0
aI0
aa(lp244
I3
aI2
aI0
aI0
aa(lp245
I5
aI2
aI0
aI0
aa(lp246
I11
aI1
aI0
aI0
aa(lp247
I15
aI8
aI0
aI0
aa(lp248
I18
aI11
aI0
aI0
aa(lp249
I9
aI6
aI0
aI0
aa(lp250
I6
aI2
aI0
aI0
aa(lp251
I4
aI2
aI0
aI0
aa(lp252
I0
aI0
aI0
aI0
aa(lp253
I13
aI6
aI0
aI0
aa(lp254
I0
aI0
aI0
aI0
aa(lp255
I10
aI6
aI0
aI0
aa(lp256
I0
aI0
aI0
aI0
aa(lp257
I2
aI1
aI0
aI0
aa(lp258
I4
aI3
aI0
aI1
aa(lp259
I2
aI1
aI0
aI0
aa(lp260
I7
aI4
aI0
aI0
aa(lp261
I10
aI6
aI0
aI0
aa(lp262
I3
aI2
aI0
aI0
aa(lp263
I6
aI3
aI0
aI0
aa(lp264
I6
aI2
aI0
aI0
aa(lp265
I0
aI0
aI0
aI0
aa(lp266
I5
aI2
aI0
aI0
aa(lp267
I4
aI2
aI0
aI0
aa(lp268
I8
aI5
aI0
aI0
aa(lp269
I2
aI1
aI0
aI0
aa(lp270
I4
aI2
aI0
aI0
aa(lp271
I13
aI4
aI0
aI0
aa(lp272
I0
aI0
aI0
aI0
aa(lp273
I3
aI2
aI0
aI0
aa(lp274
I3
aI2
aI0
aI0
aa(lp275
I2
aI0
aI0
aI0
aa(lp276
I10
aI7
aI0
aI0
aa(lp277
I2
aI1
aI0
aI0
aa(lp278
I2
aI1
aI0
aI0
aa(lp279
I2
aI1
aI0
aI0
aa(lp280
I8
aI2
aI0
aI0
aa(lp281
I2
aI1
aI0
aI0
aa(lp282
I0
aI0
aI0
aI0
aa(lp283
I11
aI7
aI0
aI0
aa(lp284
I0
aI0
aI0
aI0
aa(lp285
I10
aI7
aI0
aI0
aa(lp286
I0
aI0
aI0
aI0
aa(lp287
I9
aI6
aI0
aI0
aa(lp288
I0
aI0
aI0
aI0
aa(lp289
I4
aI2
aI0
aI0
aa(lp290
I3
aI2
aI0
aI0
aa(lp291
I3
aI2
aI0
aI0
aa(lp292
I33
aI19
aI0
aI0
aa(lp293
I8
aI6
aI0
aI0
aa(lp294
I3
aI2
aI0
aI0
aa(lp295
I30
aI12
aI0
aI0
aa(lp296
I0
aI0
aI0
aI0
aa(lp297
I6
aI3
aI0
aI0
aa(lp298
I15
aI10
aI0
aI0
aa(lp299
I4
aI3
aI0
aI0
aa(lp300
I0
aI0
aI0
aI0
aa(lp301
I7
aI5
aI0
aI0
aa(lp302
I0
aI0
aI0
aI0
aa(lp303
I5
aI4
aI0
aI0
aa(lp304
I23
aI11
aI0
aI0
aa(lp305
I6
aI3
aI0
aI0
aa(lp306
I0
aI0
aI0
aI0
aa(lp307
I0
aI0
aI0
aI0
aa(lp308
I4
aI2
aI0
aI0
aa(lp309
I3
aI2
aI0
aI0
aa(lp310
I11
aI7
aI0
aI1
aa(lp311
I2
aI1
aI0
aI0
aa(lp312
I18
aI10
aI0
aI0
aa(lp313
I0
aI0
aI0
aI0
aa(lp314
I2
aI0
aI0
aI0
aa(lp315
I15
aI6
aI0
aI0
aa(lp316
I3
aI2
aI0
aI0
aa(lp317
I2
aI1
aI0
aI0
aa(lp318
I0
aI0
aI0
aI0
aa(lp319
I16
aI8
aI0
aI0
aa(lp320
I16
aI8
aI0
aI0
aa(lp321
I0
aI0
aI0
aI0
aa(lp322
I3
aI1
aI0
aI0
aa(lp323
I2
aI1
aI0
aI0
aa(lp324
I3
aI2
aI0
aI0
aa(lp325
I4
aI2
aI0
aI0
aa(lp326
I3
aI2
aI0
aI0
aa(lp327
I6
aI4
aI0
aI0
aa(lp328
I2
aI1
aI0
aI0
aa(lp329
I15
aI12
aI0
aI0
aa(lp330
I1
aI0
aI0
aI0
aa(lp331
I0
aI0
aI0
aI0
aa(lp332
I6
aI4
aI0
aI0
aa(lp333
I4
aI3
aI0
aI0
aa(lp334
I6
aI2
aI0
aI0
aa(lp335
I3
aI2
aI0
aI0
aa(lp336
I0
aI0
aI0
aI0
aa(lp337
I9
aI4
aI0
aI0
aa(lp338
I0
aI0
aI0
aI0
aa(lp339
I6
aI4
aI0
aI0
aa(lp340
I5
aI3
aI0
aI0
aa(lp341
I3
aI0
aI0
aI0
aa(lp342
I12
aI7
aI0
aI0
aa(lp343
I3
aI1
aI0
aI0
aa(lp344
I0
aI0
aI0
aI0
aa(lp345
I9
aI3
aI0
aI0
aa(lp346
I17
aI12
aI0
aI0
aa(lp347
I8
aI4
aI0
aI0
aa(lp348
I18
aI4
aI0
aI0
aa(lp349
I88
aI54
aI0
aI0
aa(lp350
I6
aI3
aI0
aI0
aa(lp351
I4
aI2
aI0
aI0
aa(lp352
I7
aI3
aI0
aI0
aa(lp353
I19
aI11
aI0
aI0
aa(lp354
I3
aI2
aI0
aI0
aa(lp355
I3
aI2
aI0
aI0
aa(lp356
I0
aI0
aI0
aI0
aa(lp357
I0
aI0
aI0
aI0
aa(lp358
I1
aI0
aI0
aI0
aa(lp359
I4
aI2
aI0
aI0
aa(lp360
I19
aI10
aI0
aI0
aa(lp361
I3
aI1
aI0
aI0
aa(lp362
I2
aI1
aI0
aI0
aa(lp363
I0
aI0
aI0
aI0
aa(lp364
I10
aI7
aI0
aI0
aa(lp365
I2
aI1
aI0
aI0
aa(lp366
I7
aI3
aI0
aI0
aa(lp367
I5
aI3
aI0
aI0
aa(lp368
I2
aI1
aI0
aI0
aa(lp369
I12
aI8
aI0
aI0
aa(lp370
I4
aI2
aI0
aI0
aa(lp371
I0
aI0
aI0
aI0
aa(lp372
I20
aI13
aI0
aI0
aa(lp373
I13
aI8
aI0
aI0
aa(lp374
I3
aI2
aI0
aI0
aa(lp375
I44
aI21
aI0
aI0
aa(lp376
I5
aI4
aI0
aI0
aa(lp377
I11
aI6
aI0
aI0
aa(lp378
I7
aI4
aI0
aI0
aa(lp379
I2
aI1
aI0
aI0
aa(lp380
I9
aI5
aI0
aI0
aa(lp381
I0
aI0
aI0
aI0
aa(lp382
I21
aI11
aI0
aI0
aa(lp383
I3
aI2
aI0
aI0
aa(lp384
I30
aI12
aI0
aI0
aa(lp385
I0
aI0
aI0
aI0
aa(lp386
I1
aI0
aI0
aI0
aa(lp387
I18
aI12
aI0
aI0
aa(lp388
I8
aI4
aI0
aI0
aa(lp389
I3
aI2
aI0
aI0
aa(lp390
I11
aI5
aI0
aI1
aa(lp391
I11
aI6
aI0
aI0
aa(lp392
I8
aI5
aI0
aI0
aa(lp393
I3
aI2
aI0
aI0
aa(lp394
I0
aI0
aI0
aI0
aa(lp395
I24
aI11
aI0
aI0
aa(lp396
I3
aI1
aI0
aI0
aa(lp397
I2
aI1
aI0
aI0
aa(lp398
I3
aI2
aI0
aI0
aa(lp399
I2
aI1
aI0
aI0
aa(lp400
I3
aI2
aI0
aI0
aa(lp401
I4
aI2
aI0
aI1
aa(lp402
I16
aI8
aI0
aI0
aa(lp403
I6
aI4
aI0
aI0
aa(lp404
I21
aI1
aI0
aI0
aa(lp405
I2
aI1
aI0
aI0
aa(lp406
I6
aI4
aI0
aI0
aa(lp407
I3
aI2
aI0
aI0
aa(lp408
I13
aI8
aI0
aI0
aa(lp409
I4
aI3
aI0
aI0
aa(lp410
I0
aI0
aI0
aI0
aa(lp411
I4
aI3
aI0
aI0
aa(lp412
I7
aI4
aI0
aI0
aa(lp413
I9
aI3
aI0
aI0
aa(lp414
I0
aI0
aI0
aI0
aa(lp415
I10
aI6
aI0
aI0
aa(lp416
I9
aI4
aI0
aI0
aa(lp417
I0
aI0
aI0
aI0
aa(lp418
I3
aI2
aI0
aI0
aa(lp419
I0
aI0
aI0
aI0
aa(lp420
I2
aI1
aI0
aI0
aa(lp421
I3
aI1
aI0
aI0
aa(lp422
I4
aI2
aI0
aI0
aa(lp423
I18
aI10
aI0
aI0
aa(lp424
I0
aI0
aI0
aI0
aa(lp425
I3
aI2
aI0
aI0
aa(lp426
I4
aI2
aI0
aI0
aa(lp427
I4
aI2
aI0
aI0
aa(lp428
I0
aI0
aI0
aI0
aa(lp429
I0
aI0
aI0
aI0
aa(lp430
I2
aI1
aI0
aI0
aa(lp431
I6
aI2
aI0
aI0
aa(lp432
I2
aI1
aI0
aI0
aa(lp433
I10
aI6
aI0
aI0
aa(lp434
I16
aI12
aI0
aI0
aa(lp435
I8
aI4
aI0
aI0
aa(lp436
I2
aI1
aI0
aI0
aa(lp437
I3
aI2
aI0
aI0
aa(lp438
I4
aI3
aI0
aI1
aa(lp439
I3
aI2
aI0
aI0
aa(lp440
I3
aI2
aI0
aI0
aa(lp441
I4
aI2
aI0
aI0
aa(lp442
I2
aI1
aI0
aI0
aa(lp443
I0
aI0
aI0
aI0
aa(lp444
I15
aI9
aI0
aI0
aa(lp445
I9
aI6
aI0
aI0
aa(lp446
I3
aI2
aI0
aI0
aa(lp447
I17
aI6
aI0
aI0
aa(lp448
I4
aI2
aI0
aI0
aa(lp449
I11
aI7
aI0
aI0
aa(lp450
I5
aI3
aI0
aI0
aa(lp451
I2
aI1
aI0
aI0
aa(lp452
I6
aI3
aI0
aI0
aa(lp453
I5
aI3
aI0
aI0
aa(lp454
I18
aI12
aI0
aI0
aa(lp455
I10
aI7
aI0
aI0
aa(lp456
I0
aI0
aI0
aI0
aa(lp457
I0
aI0
aI0
aI0
aa(lp458
I6
aI3
aI0
aI0
aa(lp459
I3
aI2
aI0
aI0
aa(lp460
I4
aI2
aI0
aI1
aa(lp461
I4
aI2
aI0
aI0
aa(lp462
I0
aI0
aI0
aI0
aa(lp463
I10
aI5
aI0
aI0
aa(lp464
I1
aI0
aI0
aI0
aa(lp465
I0
aI0
aI0
aI0
aa(lp466
I0
aI0
aI0
aI0
aa(lp467
I3
aI2
aI0
aI0
aa(lp468
I0
aI0
aI0
aI0
aa(lp469
I3
aI2
aI0
aI0
aa(lp470
I7
aI4
aI0
aI0
aa(lp471
I3
aI2
aI0
aI0
aa(lp472
I3
aI2
aI0
aI0
aa(lp473
I4
aI2
aI0
aI0
aa(lp474
I3
aI2
aI0
aI0
aa(lp475
I4
aI2
aI0
aI0
aa(lp476
I0
aI0
aI0
aI0
aa(lp477
I1
aI0
aI0
aI0
aa(lp478
I2
aI1
aI0
aI0
aa(lp479
I3
aI2
aI0
aI0
aa(lp480
I3
aI1
aI0
aI0
aa(lp481
I0
aI0
aI0
aI0
aa.